(lp0
ccopy_reg
_reconstructor
p1
(cpy_ms_cognitive.py_ms_cognitive_search.py_ms_cognitive_web_search
WebResult
p2
c__builtin__
object
p3
Ntp4
Rp5
(dp6
S'name'
p7
VCompare cruise travel insurance quotes - Confused.com
p8
sS'display_url'
p9
Vhttps://www.confused.com/travel-insurance/cruise
p10
sS'url'
p11
Vhttps://www.bing.com/cr?IG=AA704C008473402B82A8A63FABAF21CD&CID=32662BF9699F640D2EC121A668766541&rd=1&h=EJwpWa-IfLg6LsN-mkKeTMNJiB1dHBf1_UDJ-tg8mlw&v=1&r=https%3a%2f%2fwww.confused.com%2ftravel-insurance%2fcruise&p=DevEx,5101.1
p12
sS'title'
p13
g8
sS'snippet'
p14
VCompare cruise travel insurance policies from a range of UK companies with Confused.com and find cover for flight cancellations, lost luggage and medical bills.
p15
sS'json'
p16
(dp17
Vname
p18
g8
sVurl
p19
g12
sVdateLastCrawled
p20
V2017-04-01T08:30:00
p21
sVdisplayUrl
p22
g10
sVsnippet
p23
g15
sVid
p24
Vhttps://api.cognitive.microsoft.com/api/v5/#WebPages.0
p25
ssS'id'
p26
g25
sS'deep_links'
p27
NsS'description'
p28
g15
sbag1
(g2
g3
Ntp29
Rp30
(dp31
g7
VTravel Insurance Primer for Cruise Travelers - Cruise Critic
p32
sg9
Vwww.cruisecritic.com/articles.cfm?ID=274
p33
sg11
Vhttp://www.bing.com/cr?IG=AA704C008473402B82A8A63FABAF21CD&CID=32662BF9699F640D2EC121A668766541&rd=1&h=HcaSgc1Tzo6LDv2AJ9ku8uF4ztPwyMJHVKPuE_i0BI8&v=1&r=http%3a%2f%2fwww.cruisecritic.com%2farticles.cfm%3fID%3d274&p=DevEx,5116.1
p34
sg13
g32
sg14
V(Cruise line insurance usually offers secondary coverage, and it's usually more limited than similarly priced coverage you can buy on your own. For example, ... If you want to be covered for pre-existing medical conditions, you should buy insurance at the time you make your final cruise payment. (Each insurer dictates its own coverage window, but the deadline is usually 10 to 15 days after making that final payment -- or after booking your airfares, if you do that first.)
p35
sg16
(dp36
g18
g32
sg19
g34
sg20
V2017-04-01T07:10:00
p37
sg22
g33
sg23
g35
sg24
Vhttps://api.cognitive.microsoft.com/api/v5/#WebPages.1
p38
ssg26
g38
sg27
Nsg28
g35
sbag1
(g2
g3
Ntp39
Rp40
(dp41
g7
V5 Reasons You Need Cruise Insurance | Allianz Global Assistance
p42
sg9
Vhttps://www.allianztravelinsurance.com/travel/cruise/reasons-for...
p43
sg11
Vhttps://www.bing.com/cr?IG=AA704C008473402B82A8A63FABAF21CD&CID=32662BF9699F640D2EC121A668766541&rd=1&h=ZVDnlQ99qb-2oYBljl3lKSyPV5EptwBWtYRi2G_Fomg&v=1&r=https%3a%2f%2fwww.allianztravelinsurance.com%2ftravel%2fcruise%2freasons-for-cruise-insurance.htm&p=DevEx,5129.1
p44
sg13
g42
sg14
VHere are the 5 reasons you need to buy cruise insurance for your next cruise vacation. 1. Cruise insurance protects your investment in case of last-minute cancellations. Think your cruise line will understand when you have to cancel your trip because of a family emergency? ... If you're treated on board, prepare to receive a hefty medical bill. Your regular health insurance won't cover you.
p45
sg16
(dp46
g18
g42
sg19
g44
sg20
V2017-03-30T07:06:00
p47
sg22
g43
sg23
g45
sg24
Vhttps://api.cognitive.microsoft.com/api/v5/#WebPages.2
p48
ssg26
g48
sg27
Nsg28
g45
sbag1
(g2
g3
Ntp49
Rp50
(dp51
g7
VCruise Insurance - Travel Guard
p52
sg9
Vwww.travelguard.com/travelinsurance/cruise.asp
p53
sg11
Vhttp://www.bing.com/cr?IG=AA704C008473402B82A8A63FABAF21CD&CID=32662BF9699F640D2EC121A668766541&rd=1&h=NLZNq795IPDMN53C0tYbfTww0sqlcaAfptHFAfiHJyo&v=1&r=http%3a%2f%2fwww.travelguard.com%2ftravelinsurance%2fcruise.asp&p=DevEx,5142.1
p54
sg13
g52
sg14
VCruise Insurance. Don't get left high and dry on your next cruise. Cover your cruise with cruise travel insurance through Travel Guard. Insurance plans through Travel Guard can include cruise insurance coverage for cruises of all shapes and sizes.
p55
sg16
(dp56
g18
g52
sg19
g54
sg20
V2017-03-31T06:27:00
p57
sg22
g53
sg23
g55
sg24
Vhttps://api.cognitive.microsoft.com/api/v5/#WebPages.3
p58
ssg26
g58
sg27
Nsg28
g55
sbag1
(g2
g3
Ntp59
Rp60
(dp61
g7
VWhat is the Right Travel Insurance for a Cruise?
p62
sg9
Vhttps://www.insuremytrip.com/insuring-your-trip/insuring-cruise
p63
sg11
Vhttps://www.bing.com/cr?IG=AA704C008473402B82A8A63FABAF21CD&CID=32662BF9699F640D2EC121A668766541&rd=1&h=QOKGZGjstRJ1KklPnB_Bjt5-CUluoWRsJ_-k5i_4Yrc&v=1&r=https%3a%2f%2fwww.insuremytrip.com%2finsuring-your-trip%2finsuring-cruise%2f&p=DevEx,5156.1
p64
sg13
g62
sg14
VTravel insurance is particularly important for cruisers, because cruising carries its own unique set of concerns. For example, because of the nature of cruising, the possibility of missing a leg of your trip \u2014 such as the ship's departure from one of its ports \u2014 is somewhat higher than it is when you take a non-stop flight from Point A to Point B. Getting appropriate medical care in an emergency at sea is also a consideration that needs to be factored into making decisions about insuring ...
p65
sg16
(dp66
g18
g62
sg19
g64
sg20
V2017-04-04T04:55:00
p67
sg22
g63
sg23
g65
sg24
Vhttps://api.cognitive.microsoft.com/api/v5/#WebPages.4
p68
ssg26
g68
sg27
Nsg28
g65
sbag1
(g2
g3
Ntp69
Rp70
(dp71
g7
VGet Instant Cruise Travel Insurance Quotes Online - Bupa
p72
sg9
Vhttps://www.bupa.com.au/travel-insurance/cruise-travel-insurance
p73
sg11
Vhttps://www.bing.com/cr?IG=AA704C008473402B82A8A63FABAF21CD&CID=32662BF9699F640D2EC121A668766541&rd=1&h=5XBifGNhUUo42StJnAH_RYNIseL8O0IsMQDwp8sIPKM&v=1&r=https%3a%2f%2fwww.bupa.com.au%2ftravel-insurance%2fcruise-travel-insurance%2f&p=DevEx,5168.1
p74
sg13
g72
sg14
VCruise travel insurance. Having insurance for your cruise can mean peace of mind from the moment you book, providing cover for cancellation, loss or damage to your luggage, cover for medical costs, as well as offering 24/7 emergency assistance.
p75
sg16
(dp76
g18
g72
sg19
g74
sg20
V2017-03-24T05:56:00
p77
sg22
g73
sg23
g75
sg24
Vhttps://api.cognitive.microsoft.com/api/v5/#WebPages.5
p78
ssg26
g78
sg27
Nsg28
g75
sbag1
(g2
g3
Ntp79
Rp80
(dp81
g7
VRoyal Caribbean Cruises Employee Health Insurance | Glassdoor.co.in
p82
sg9
Vhttps://www.glassdoor.co.in/Benefits/Royal-Caribbean-Cruises...
p83
sg11
Vhttps://www.bing.com/cr?IG=AA704C008473402B82A8A63FABAF21CD&CID=32662BF9699F640D2EC121A668766541&rd=1&h=r0Jr7Sl4T1vm0GRl9Q9m3-KfO9rHXOEAUXxdVo3n7Uk&v=1&r=https%3a%2f%2fwww.glassdoor.co.in%2fBenefits%2fRoyal-Caribbean-Cruises-Health-Insurance-US-BNFT1_E3579_N1.htm&p=DevEx,5185.1
p84
sg13
g82
sg14
VWhat Health Insurance benefit do Royal Caribbean Cruises employees get? Royal Caribbean Cruises Health Insurance, reported anonymously by Royal Caribbean Cruises employees.
p85
sg16
(dp86
g18
g82
sg19
g84
sg20
V2017-03-16T17:14:00
p87
sg22
g83
sg23
g85
sg24
Vhttps://api.cognitive.microsoft.com/api/v5/#WebPages.6
p88
ssg26
g88
sg27
Nsg28
g85
sbag1
(g2
g3
Ntp89
Rp90
(dp91
g7
VCruise medical travel insurance | AllClear Cruise
p92
sg9
Vhttps://www.allclearcruise.co.uk/cruise-insurance/medical
p93
sg11
Vhttps://www.bing.com/cr?IG=AA704C008473402B82A8A63FABAF21CD&CID=32662BF9699F640D2EC121A668766541&rd=1&h=7d563NrAB6bFFqqXNVYHNPDM-OKxSph8CjIs_aCshiY&v=1&r=https%3a%2f%2fwww.allclearcruise.co.uk%2fcruise-insurance%2fmedical%2f&p=DevEx,5197.1
p94
sg13
g92
sg14
VCruise insurance is essential for passengers, no matter how short or long the trip. Click through to find out more about cruise medical travel insurance
p95
sg16
(dp96
g18
g92
sg19
g94
sg20
V2017-03-28T22:11:00
p97
sg22
g93
sg23
g95
sg24
Vhttps://api.cognitive.microsoft.com/api/v5/#WebPages.7
p98
ssg26
g98
sg27
Nsg28
g95
sbag1
(g2
g3
Ntp99
Rp100
(dp101
g7
VCruise Travel Insurance for Less | TripInsurance.com
p102
sg9
Vwww.tripinsurance.com/DRM/cruise-insurance-2
p103
sg11
Vhttp://www.bing.com/cr?IG=AA704C008473402B82A8A63FABAF21CD&CID=32662BF9699F640D2EC121A668766541&rd=1&h=oP-xc8av7GT7LXaeZXkwP_naDm9tie48dv56uQDkE-I&v=1&r=http%3a%2f%2fwww.tripinsurance.com%2fDRM%2fcruise-insurance-2&p=DevEx,5210.1
p104
sg13
g102
sg14
VBuy Cruise Insurance For Less. You get better coverage and save money buying cruise insurance from us. Buy our exclusive policies direct from the leading insurers and save 40% or more.
p105
sg16
(dp106
g18
g102
sg19
g104
sg20
V2017-03-30T17:07:00
p107
sg22
g103
sg23
g105
sg24
Vhttps://api.cognitive.microsoft.com/api/v5/#WebPages.8
p108
ssg26
g108
sg27
Nsg28
g105
sbag1
(g2
g3
Ntp109
Rp110
(dp111
g7
Vvacation insurance - carnival.com
p112
sg9
Vhttps://www.carnival.com/about-carnival/vacation-protection
p113
sg11
Vhttps://www.bing.com/cr?IG=AA704C008473402B82A8A63FABAF21CD&CID=32662BF9699F640D2EC121A668766541&rd=1&h=ouLntW5nO1Nc9aIbzvc-F_7OMls3IRVDkQSFh6eKL8I&v=1&r=https%3a%2f%2fwww.carnival.com%2fabout-carnival%2fvacation-protection.aspx&p=DevEx,5223.1
p114
sg13
g112
sg14
VThe Carnival Cruise Vacation Protection Plan offers you a piece of mind in case of emergencies. See details online or contact us for more information.
p115
sg16
(dp116
g18
g112
sg19
g114
sg20
V2017-04-02T09:07:00
p117
sg22
g113
sg23
g115
sg24
Vhttps://api.cognitive.microsoft.com/api/v5/#WebPages.9
p118
ssg26
g118
sg27
Nsg28
g115
sbag1
(g2
g3
Ntp119
Rp120
(dp121
g7
VPrincess Vacation Protection - Cruises \u2013 Cruise Vacations
p122
sg9
Vhttps://www.princess.com/downloads/pdf/faq_answer_legal/Princess...
p123
sg11
Vhttps://www.bing.com/cr?IG=AA704C008473402B82A8A63FABAF21CD&CID=32662BF9699F640D2EC121A668766541&rd=1&h=0IFxaY2CHwwsQ7pi6RqWKDPPkYtdIVkQ5risUvtpIG0&v=1&r=https%3a%2f%2fwww.princess.com%2fdownloads%2fpdf%2ffaq_answer_legal%2fPrincess_Vacation_Protection.pdf&p=DevEx,5234.1
p124
sg13
g122
sg14
VDesigned for the Guests of Princess Cruises and/or Princess Tours You never know what might put your vacation investment at risk. ... \u2022 Princess Travel Insurance Program \u2013 provides coverage for accident and sickness medical beneits, evacuation, baggage protection and much more. Underwritten by Transamerica Casualty Insurance Company.
p125
sg16
(dp126
g18
g122
sg19
g124
sg20
V2017-04-01T14:09:00
p127
sg22
g123
sg23
g125
sg24
Vhttps://api.cognitive.microsoft.com/api/v5/#WebPages.10
p128
ssg26
g128
sg27
Nsg28
g125
sbag1
(g2
g3
Ntp129
Rp130
(dp131
g7
VCruise holiday travel insurance, from justtravelcover.com
p132
sg9
Vhttps://www.justtravelcover.com/cruise-travel-insurance
p133
sg11
Vhttps://www.bing.com/cr?IG=AA704C008473402B82A8A63FABAF21CD&CID=32662BF9699F640D2EC121A668766541&rd=1&h=GNlKrk2M7zShKEnCiOQp2tXnmTyhTGsvT9mssQwMDbg&v=1&r=https%3a%2f%2fwww.justtravelcover.com%2fcruise-travel-insurance&p=DevEx,5246.1
p134
sg13
g132
sg14
VCruise travel insurance from Justravelcover.com provides great value travel cover designed especially for the needs of a cruise holiday. Get an instant quote online or by phone
p135
sg16
(dp136
g18
g132
sg19
g134
sg20
V2017-04-02T07:34:00
p137
sg22
g133
sg23
g135
sg24
Vhttps://api.cognitive.microsoft.com/api/v5/#WebPages.11
p138
ssg26
g138
sg27
Nsg28
g135
sbag1
(g2
g3
Ntp139
Rp140
(dp141
g7
VTravel Insurance FAQ's - Alaska Cruises
p142
sg9
Vhttps://www.alaskacruises.com/cruises/travel-protection-faq.html
p143
sg11
Vhttps://www.bing.com/cr?IG=AA704C008473402B82A8A63FABAF21CD&CID=32662BF9699F640D2EC121A668766541&rd=1&h=SXSeNyF1UhYDm-2Q7mJXpqumlOL9z19f4Yr4H_1UCXI&v=1&r=https%3a%2f%2fwww.alaskacruises.com%2fcruises%2ftravel-protection-faq.html&p=DevEx,5259.1
p144
sg13
g142
sg14
VFind Travel Insurance FAQ's information on AlaskaCruises.com. Already Booked | Shore Excursions | Make a Payment | About Us | Testimonials. US Toll Free: 1-800-201-6937 International Callers Click Here. Alaska Cruise Finder. Advanced Search; Alaska Cruises from Seattle; ... Medical facilities on cruise ships and in resort destinations are extremely limited and may be inadequate for your condition.
p145
sg16
(dp146
g18
g142
sg19
g144
sg20
V2017-03-24T21:14:00
p147
sg22
g143
sg23
g145
sg24
Vhttps://api.cognitive.microsoft.com/api/v5/#WebPages.12
p148
ssg26
g148
sg27
Nsg28
g145
sbag1
(g2
g3
Ntp149
Rp150
(dp151
g7
VCompare Cheap Cruise Travel Insurance Quotes at comparethemarket.com
p152
sg9
Vhttps://www.comparethemarket.com/travel-insurance/cruise
p153
sg11
Vhttps://www.bing.com/cr?IG=AA704C008473402B82A8A63FABAF21CD&CID=32662BF9699F640D2EC121A668766541&rd=1&h=7_wjjawmh6gsI7x6BWLnhKqdk5uphGFZgiSVFkMC078&v=1&r=https%3a%2f%2fwww.comparethemarket.com%2ftravel-insurance%2fcruise%2f&p=DevEx,5272.1
p154
sg13
g152
sg14
VBuy cruise travel insurance and get 2 for 1 cinema tickets with MEERKAT MOVIES. Fill in a quick form, compare holiday insurance quotes & find the best deals.
p155
sg16
(dp156
g18
g152
sg19
g154
sg20
V2017-03-28T15:45:00
p157
sg22
g153
sg23
g155
sg24
Vhttps://api.cognitive.microsoft.com/api/v5/#WebPages.13
p158
ssg26
g158
sg27
Nsg28
g155
sbag1
(g2
g3
Ntp159
Rp160
(dp161
g7
VTravel Insurance | Know Before You Go | P&O Cruises Australia
p162
sg9
Vhttps://www.pocruises.com.au/plan/know-before-you-go/travel-insurance
p163
sg11
Vhttps://www.bing.com/cr?IG=AA704C008473402B82A8A63FABAF21CD&CID=32662BF9699F640D2EC121A668766541&rd=1&h=NgEyzoyPTC00-LlzoKKu4Rm_nPS3gOhpPihVChNOQ9Q&v=1&r=https%3a%2f%2fwww.pocruises.com.au%2fplan%2fknow-before-you-go%2ftravel-insurance&p=DevEx,5288.1
p164
sg13
g162
sg14
VInternational travel insurance is recommended on Australian coastal cruises, as your cruise is outside the scope of Australian Medicare. Be aware when organising your insurance that uninsured travellers ... New Zealand ACC and private health insurance won\u2019t cover you for medical costs onboard, all cruises (even domestic cruises) require international travel insurance. Next Health & Safety. FAQs. Q.
p165
sg16
(dp166
g18
g162
sg19
g164
sg20
V2017-04-03T08:07:00
p167
sg22
g163
sg23
g165
sg24
Vhttps://api.cognitive.microsoft.com/api/v5/#WebPages.14
p168
ssg26
g168
sg27
Nsg28
g165
sbag1
(g2
g3
Ntp169
Rp170
(dp171
g7
VHealth Insurance for Cruisers | Blue Water Sailing
p172
sg9
Vwww.bwsailing.com/bw/cruising-news/health-insurance-for-cruisers
p173
sg11
Vhttp://www.bing.com/cr?IG=AA704C008473402B82A8A63FABAF21CD&CID=32662BF9699F640D2EC121A668766541&rd=1&h=yuWMVIN6A6ioM2ggf4pzHsJs-bQ1cYA30Gf-LnDTkEs&v=1&r=http%3a%2f%2fwww.bwsailing.com%2fbw%2fcruising-news%2fhealth-insurance-for-cruisers%2f&p=DevEx,5301.1
p174
sg13
g172
sg14
VOnce you leave the U.S., medical services, costs and insurance all change. Here are some ways of going foreign and being covered. (published April 2014) For the last few years, health insurance has been a topic near the top of the news and on many American\u2019s minds as we adapt to the new laws
p175
sg16
(dp176
g18
g172
sg19
g174
sg20
V2017-04-02T18:01:00
p177
sg22
g173
sg23
g175
sg24
Vhttps://api.cognitive.microsoft.com/api/v5/#WebPages.15
p178
ssg26
g178
sg27
Nsg28
g175
sbag1
(g2
g3
Ntp179
Rp180
(dp181
g7
VCruise travel insurance | AllClear Cruise
p182
sg9
Vhttps://www.allclearcruise.co.uk/cruise-insurance/travel
p183
sg11
Vhttps://www.bing.com/cr?IG=AA704C008473402B82A8A63FABAF21CD&CID=32662BF9699F640D2EC121A668766541&rd=1&h=cwOv5lE_54QQ1I_lSIii7IDVuMNYKj3FL6mwDGQxZeg&v=1&r=https%3a%2f%2fwww.allclearcruise.co.uk%2fcruise-insurance%2ftravel%2f&p=DevEx,5313.1
p184
sg13
g182
sg14
VCruise travel insurance guide If you are planning a cruise holiday, you may want to consider specialist cruise travel insurance to cover you for the duration of your trip.
p185
sg16
(dp186
g18
g182
sg19
g184
sg20
V2017-04-01T08:16:00
p187
sg22
g183
sg23
g185
sg24
Vhttps://api.cognitive.microsoft.com/api/v5/#WebPages.16
p188
ssg26
g188
sg27
Nsg28
g185
sbag1
(g2
g3
Ntp189
Rp190
(dp191
g7
VLearn More About Cruise Insurance - MoneySuperMarket
p192
sg9
Vhttps://www.moneysupermarket.com/travel-insurance/cruise
p193
sg11
Vhttps://www.bing.com/cr?IG=AA704C008473402B82A8A63FABAF21CD&CID=32662BF9699F640D2EC121A668766541&rd=1&h=b3MXpFDmi_-MepamSms89ynLuRuuouTWlMAgnqKdSzU&v=1&r=https%3a%2f%2fwww.moneysupermarket.com%2ftravel-insurance%2fcruise%2f&p=DevEx,5328.1
p194
sg13
g192
sg14
VFind out all you need to know about cruise travel insurance, what it covers, how to find it and what its benefits are with MoneySuperMarket.
p195
sg16
(dp196
g18
g192
sg19
g194
sg20
V2017-04-03T05:16:00
p197
sg22
g193
sg23
g195
sg24
Vhttps://api.cognitive.microsoft.com/api/v5/#WebPages.17
p198
ssg26
g198
sg27
Nsg28
g195
sbag1
(g2
g3
Ntp199
Rp200
(dp201
g7
VBuy & Compare Cruise Insurance | Allianz Global Assistance
p202
sg9
Vhttps://www.allianztravelinsurance.com/travel/cruise
p203
sg11
Vhttps://www.bing.com/cr?IG=AA704C008473402B82A8A63FABAF21CD&CID=32662BF9699F640D2EC121A668766541&rd=1&h=blUPQFBuTfQPvm3bv6GOSggbZsUibOXqME4Cmk6y5xE&v=1&r=https%3a%2f%2fwww.allianztravelinsurance.com%2ftravel%2fcruise&p=DevEx,5341.1
p204
sg13
g202
sg14
VAnd if you suffer a medical crisis on board, cruise insurance can cover your evacuation and emergency medical care. Cruise travel insurance from Allianz Global Assistance includes many other benefits, such as lost/delayed baggage coverage, trip delay coverage, trip interruption coverage and more. We offer affordable plans for every type of cruise.
p205
sg16
(dp206
g18
g202
sg19
g204
sg20
V2017-03-28T21:27:00
p207
sg22
g203
sg23
g205
sg24
Vhttps://api.cognitive.microsoft.com/api/v5/#WebPages.18
p208
ssg26
g208
sg27
Nsg28
g205
sbag1
(g2
g3
Ntp209
Rp210
(dp211
g7
VCruise Travel Insurance Cover with TravelSupermarket
p212
sg9
Vhttps://www.travelsupermarket.com/en-gb/travel-insurance/cruise
p213
sg11
Vhttps://www.bing.com/cr?IG=AA704C008473402B82A8A63FABAF21CD&CID=32662BF9699F640D2EC121A668766541&rd=1&h=4MY7TAnFFcOqKYfJ71D-aR430eNy4IYzjGQFcta7C-s&v=1&r=https%3a%2f%2fwww.travelsupermarket.com%2fen-gb%2ftravel-insurance%2fcruise%2f&p=DevEx,5357.1
p214
sg13
g212
sg14
VCompare cruise insurance at TravelSupermarket. Whatever the length of your next cruise break, we'll find the right policy to cover your trip.
p215
sg16
(dp216
g18
g212
sg19
g214
sg20
V2017-04-03T13:18:00
p217
sg22
g213
sg23
g215
sg24
Vhttps://api.cognitive.microsoft.com/api/v5/#WebPages.19
p218
ssg26
g218
sg27
Nsg28
g215
sbag1
(g2
g3
Ntp219
Rp220
(dp221
g7
VCruise Travel Insurance | No Upper Age Limit | Staysure
p222
sg9
Vhttps://www.staysure.co.uk/travel-insurance/cruise
p223
sg11
Vhttps://www.bing.com/cr?IG=AA704C008473402B82A8A63FABAF21CD&CID=32662BF9699F640D2EC121A668766541&rd=1&h=G9SnpETYV7dh-wJKl2jXIidEfVSsh6OAFKLk7Ii1uB8&v=1&r=https%3a%2f%2fwww.staysure.co.uk%2ftravel-insurance%2fcruise%2f&p=DevEx,5369.1
p224
sg13
g222
sg14
VGet a cruise travel insurance quote online. With all pre-existing medical conditions considered and no upper age on single-trip policies.
p225
sg16
(dp226
g18
g222
sg19
g224
sg20
V2017-04-03T03:40:00
p227
sg22
g223
sg23
g225
sg24
Vhttps://api.cognitive.microsoft.com/api/v5/#WebPages.20
p228
ssg26
g228
sg27
Nsg28
g225
sbag1
(g2
g3
Ntp229
Rp230
(dp231
g7
VCompare Cruise Travel Insurance from $24 for 20+ Brands
p232
sg9
Vhttps://www.finder.com.au/travel-insurance/cruise-travel-insurance
p233
sg11
Vhttps://www.bing.com/cr?IG=AA704C008473402B82A8A63FABAF21CD&CID=32662BF9699F640D2EC121A668766541&rd=1&h=KjeeWa2FVe-r1p-uLnPSrmEIKDHYyK-09OZzpChstag&v=1&r=https%3a%2f%2fwww.finder.com.au%2ftravel-insurance%2fcruise-travel-insurance&p=DevEx,5384.1
p234
sg13
g232
sg14
VGet Cruise Travel Insurance with unlimited medical, missed departure and luggage cover Comparison of 20+ brands with quotes from $24*
p235
sg16
(dp236
g18
g232
sg19
g234
sg20
V2017-04-03T02:55:00
p237
sg22
g233
sg23
g235
sg24
Vhttps://api.cognitive.microsoft.com/api/v5/#WebPages.21
p238
ssg26
g238
sg27
Nsg28
g235
sbag1
(g2
g3
Ntp239
Rp240
(dp241
g7
VThe plain truth about cruise insurance - USA TODAY
p242
sg9
Vexperience.usatoday.com/.../27/plain-truth-cruise-insurance/30737449
p243
sg11
Vhttp://www.bing.com/cr?IG=AA704C008473402B82A8A63FABAF21CD&CID=32662BF9699F640D2EC121A668766541&rd=1&h=RCd8azl7c2dxA0C5OkpKY7auEP-kfi7p2y6nGoqC0vM&v=1&r=http%3a%2f%2fexperience.usatoday.com%2fcruise%2fstory%2fcruise-101%2f2015%2f07%2f27%2fplain-truth-cruise-insurance%2f30737449%2f&p=DevEx,5401.1
p244
sg13
g242
sg14
VWhen you buy a cruise your travel agent or the cruise line will likely give you a pitch to buy cruise insurance to cover your vacation. The agent gets commissioned, and cruise lines view insurance as a profit area.
p245
sg16
(dp246
g18
g242
sg19
g244
sg20
V2017-04-03T12:58:00
p247
sg22
g243
sg23
g245
sg24
Vhttps://api.cognitive.microsoft.com/api/v5/#WebPages.22
p248
ssg26
g248
sg27
Nsg28
g245
sbag1
(g2
g3
Ntp249
Rp250
(dp251
g7
VCruise Travel Insurance | Travel Insurance Direct (TID)
p252
sg9
Vhttps://www.travelinsurancedirect.com.au/cruise-travel-insurance
p253
sg11
Vhttps://www.bing.com/cr?IG=AA704C008473402B82A8A63FABAF21CD&CID=32662BF9699F640D2EC121A668766541&rd=1&h=4Cg0DFiU88xqXtFaKb7HqF8WD8ha9DN_7slpiQ4Od0c&v=1&r=https%3a%2f%2fwww.travelinsurancedirect.com.au%2fcruise-travel-insurance&p=DevEx,5420.1
p254
sg13
g252
sg14
VCruise Travel Insurance. TID policies cover your cruise holiday at no additional cost. Once your ship has left port, you are no longer covered by Medicare.
p255
sg16
(dp256
g18
g252
sg19
g254
sg20
V2017-04-03T07:30:00
p257
sg22
g253
sg23
g255
sg24
Vhttps://api.cognitive.microsoft.com/api/v5/#WebPages.23
p258
ssg26
g258
sg27
Nsg28
g255
sbag1
(g2
g3
Ntp259
Rp260
(dp261
g7
VMedical Insurance | Health Insurance Plans - Bajaj Allianz
p262
sg9
Vhttps://www.bajajallianz.com/Corp/health-insurance/health...
p263
sg11
Vhttps://www.bing.com/cr?IG=AA704C008473402B82A8A63FABAF21CD&CID=32662BF9699F640D2EC121A668766541&rd=1&h=etXN6lL9Z3RvmYiBlDg7KhwzIwngKoh6xufXFo966Mk&v=1&r=https%3a%2f%2fwww.bajajallianz.com%2fCorp%2fhealth-insurance%2fhealth-insurance.jsp&p=DevEx,5444.1
p264
sg13
g262
sg14
VHealth Insurance: Bajaj Allianz offers individual health insurance, family floater health insurance, senior citizen, critical illness and top up health insurance policies.
p265
sg16
(dp266
g18
g262
sg19
g264
sg20
V2017-04-03T04:44:00
p267
sg22
g263
sg23
g265
sg24
Vhttps://api.cognitive.microsoft.com/api/v5/#WebPages.24
p268
ssg26
g268
sg27
Nsg28
g265
sbag1
(g2
g3
Ntp269
Rp270
(dp271
g7
VCruise Travel Insurance Quotes Online - 1Cover
p272
sg9
Vhttps://www.1cover.com.au/cruise-travel-insurance
p273
sg11
Vhttps://www.bing.com/cr?IG=AA704C008473402B82A8A63FABAF21CD&CID=32662BF9699F640D2EC121A668766541&rd=1&h=tVKcbE7VEG1Dv4BbvP6k2CgjcqhgFNIs-FC7cPVMwnk&v=1&r=https%3a%2f%2fwww.1cover.com.au%2fcruise-travel-insurance%2f&p=DevEx,5463.1
p274
sg13
g272
sg14
VCruise Travel Insurance Features & Benefits. What are the benefits of getting cruise travel insurance? The odds of falling ill whilst aboard a cruise ship are heightened.
p275
sg16
(dp276
g18
g272
sg19
g274
sg20
V2017-04-02T15:18:00
p277
sg22
g273
sg23
g275
sg24
Vhttps://api.cognitive.microsoft.com/api/v5/#WebPages.25
p278
ssg26
g278
sg27
Nsg28
g275
sbag1
(g2
g3
Ntp279
Rp280
(dp281
g7
VCruise travel insurance - Australia Post
p282
sg9
Vhttps://auspost.com.au/travel-essentials/cruise-travel-insurance
p283
sg11
Vhttps://www.bing.com/cr?IG=AA704C008473402B82A8A63FABAF21CD&CID=32662BF9699F640D2EC121A668766541&rd=1&h=2Mfzh06XiARvPA7AVF2JhBfXiUW84ildW4np5AX3QuI&v=1&r=https%3a%2f%2fauspost.com.au%2ftravel-essentials%2fcruise-travel-insurance&p=DevEx,5478.1
p284
sg13
g282
sg14
VMedical costs on board a cruise can be quite exorbitant, and cruise travel insurance can help to reduce any financial burden caused by medical emergencies. Other scenarios where cruise ship travel insurance could come in handy: You've booked in advance but can't make the trip after all because something unforeseen happens; Your luggage or belongings are lost or stolen;
p285
sg16
(dp286
g18
g282
sg19
g284
sg20
V2017-04-02T18:06:00
p287
sg22
g283
sg23
g285
sg24
Vhttps://api.cognitive.microsoft.com/api/v5/#WebPages.26
p288
ssg26
g288
sg27
Nsg28
g285
sbag1
(g2
g3
Ntp289
Rp290
(dp291
g7
VInternational Medical Insurance - Travel Insurance Services
p292
sg9
Vwww.travelinsure.com/products/intermedical-insurance
p293
sg11
Vhttp://www.bing.com/cr?IG=AA704C008473402B82A8A63FABAF21CD&CID=32662BF9699F640D2EC121A668766541&rd=1&h=d_LTTPWYoD3GajAZn1mPL08dufgdpXASmxlET0LbDDk&v=1&r=http%3a%2f%2fwww.travelinsure.com%2fproducts%2fintermedical-insurance%2f&p=DevEx,5491.1
p294
sg13
g292
sg14
VBuy USI Affinity's international medical insurance in the case of unexpected illness, injury, or medical emergency when traveling to a foreign country.
p295
sg16
(dp296
g18
g292
sg19
g294
sg20
V2017-04-03T09:09:00
p297
sg22
g293
sg23
g295
sg24
Vhttps://api.cognitive.microsoft.com/api/v5/#WebPages.27
p298
ssg26
g298
sg27
Nsg28
g295
sbag1
(g2
g3
Ntp299
Rp300
(dp301
g7
VCruise Travel Insurance from $31 - CHOICE Recommended | InsureandGo
p302
sg9
Vhttps://www.insureandgo.com.au/travel-insurance/cruise-travel...
p303
sg11
Vhttps://www.bing.com/cr?IG=AA704C008473402B82A8A63FABAF21CD&CID=32662BF9699F640D2EC121A668766541&rd=1&h=AVW_vZ3mAlwB36cxZhvcVOYMdNg1CZL5PWgVhk52Sk0&v=1&r=https%3a%2f%2fwww.insureandgo.com.au%2ftravel-insurance%2fcruise-travel-insurance.html&p=DevEx,5508.1
p304
sg13
g302
sg14
VCruise travel insurance covers missed cruise departure, delays, loss, theft and damage to your luggage and belongings and much more.
p305
sg16
(dp306
g18
g302
sg19
g304
sg20
V2017-04-02T20:10:00
p307
sg22
g303
sg23
g305
sg24
Vhttps://api.cognitive.microsoft.com/api/v5/#WebPages.28
p308
ssg26
g308
sg27
Nsg28
g305
sbag1
(g2
g3
Ntp309
Rp310
(dp311
g7
VCruise Travel Insurance Without Age Limits | InsureandGo
p312
sg9
Vhttps://www.insureandgo.com/travel-insurance/cruise-travel-insurance
p313
sg11
Vhttps://www.bing.com/cr?IG=AA704C008473402B82A8A63FABAF21CD&CID=32662BF9699F640D2EC121A668766541&rd=1&h=5htK32KsJei21iV0Ww0rs7TfucWJ_AwBniBqEpStr8A&v=1&r=https%3a%2f%2fwww.insureandgo.com%2ftravel-insurance%2fcruise-travel-insurance&p=DevEx,5521.1
p314
sg13
g312
sg14
VCruise travel insurance . You don't have to stay on dry land to be covered. If you're going on a cruise, our specialist cruise travel insurance policies give you all the cover you need for a price you\u2019ll be happy with.
p315
sg16
(dp316
g18
g312
sg19
g314
sg20
V2017-04-02T15:50:00
p317
sg22
g313
sg23
g315
sg24
Vhttps://api.cognitive.microsoft.com/api/v5/#WebPages.29
p318
ssg26
g318
sg27
Nsg28
g315
sbag1
(g2
g3
Ntp319
Rp320
(dp321
g7
VTravel Insurance Coverage and Plans Explained
p322
sg9
Vhttps://www.insuremytrip.com/travel-insurance-plans-coverages
p323
sg11
Vhttps://www.bing.com/cr?IG=AA704C008473402B82A8A63FABAF21CD&CID=32662BF9699F640D2EC121A668766541&rd=1&h=j4LvwWaFGFtU_0Z_BO_lbMU9XlQ5aK158EbPkAJcC-A&v=1&r=https%3a%2f%2fwww.insuremytrip.com%2ftravel-insurance-plans-coverages%2f&p=DevEx,5533.1
p324
sg13
g322
sg14
VInsureMyTrip simplifies travel insurance coverage and plan types. Learn more about the coverage that travel insurance can provide for your next trip.
p325
sg16
(dp326
g18
g322
sg19
g324
sg20
V2017-04-04T00:10:00
p327
sg22
g323
sg23
g325
sg24
Vhttps://api.cognitive.microsoft.com/api/v5/#WebPages.30
p328
ssg26
g328
sg27
Nsg28
g325
sbag1
(g2
g3
Ntp329
Rp330
(dp331
g7
VEverything You Need to Know About Travel Health Insurance
p332
sg9
Vhttps://cruiseline.com/advice/before-you-cruise/what-to-know/...
p333
sg11
Vhttps://www.bing.com/cr?IG=AA704C008473402B82A8A63FABAF21CD&CID=32662BF9699F640D2EC121A668766541&rd=1&h=6cUbVq0WOUzF-WH0wABo8M9Tbm8IoquAAX4O2_XHwAo&v=1&r=https%3a%2f%2fcruiseline.com%2fadvice%2fbefore-you-cruise%2fwhat-to-know%2feverything-you-need-to-know-about-travel-health-insurance&p=DevEx,5551.1
p334
sg13
g332
sg14
VCruise ships have their own medical facilities, but travel health insurance will protect you at port and if you need further care.
p335
sg16
(dp336
g18
g332
sg19
g334
sg20
V2017-03-29T19:17:00
p337
sg22
g333
sg23
g335
sg24
Vhttps://api.cognitive.microsoft.com/api/v5/#WebPages.31
p338
ssg26
g338
sg27
Nsg28
g335
sbag1
(g2
g3
Ntp339
Rp340
(dp341
g7
VMedical Care on Cruise Ship - Consumer Reports News
p342
sg9
Vwww.consumerreports.org/cro/news/2014/04/7-things-you-need-to-know...
p343
sg11
Vhttp://www.bing.com/cr?IG=AA704C008473402B82A8A63FABAF21CD&CID=32662BF9699F640D2EC121A668766541&rd=1&h=EbjpfCpCqJZjsXMDCsoyYWw11fH0_dRzhXFGkukVjmw&v=1&r=http%3a%2f%2fwww.consumerreports.org%2fcro%2fnews%2f2014%2f04%2f7-things-you-need-to-know-about-medical-care-on-cruise-ships%2findex.htm&p=DevEx,5566.1
p344
sg13
g342
sg14
VMedical care on cruise ships may not be to the standards you expect. Consumer Reports experts say what to watch for, from cruise-ship virus and chik-v to limited medical care.
p345
sg16
(dp346
g18
g342
sg19
g344
sg20
V2017-04-03T23:34:00
p347
sg22
g343
sg23
g345
sg24
Vhttps://api.cognitive.microsoft.com/api/v5/#WebPages.32
p348
ssg26
g348
sg27
Nsg28
g345
sbag1
(g2
g3
Ntp349
Rp350
(dp351
g7
VBookSafe Travel Protection - Norwegian Cruise Line
p352
sg9
Vhttps://www.ncl.com/freestyle-cruise/booksafe
p353
sg11
Vhttps://www.bing.com/cr?IG=AA704C008473402B82A8A63FABAF21CD&CID=32662BF9699F640D2EC121A668766541&rd=1&h=YmrWhEJs1krIW5oazg6AFwsAYlO8usWSCkRvsMzLrtA&v=1&r=https%3a%2f%2fwww.ncl.com%2ffreestyle-cruise%2fbooksafe&p=DevEx,5579.1
p354
sg13
g352
sg14
VThe Norwegian Cruise Line BookSafe Travel Protection Plan is available starting at $29 per person, depending on the cruise fare paid. ... injury and are secondary to any primary and/or supplemental medical insurance you may have. For insured guests who upgrade to BookSafe Platinum Travel Protection, medical expense coverage is increased to $20,000 per insured.
p355
sg16
(dp356
g18
g352
sg19
g354
sg20
V2017-04-03T22:28:00
p357
sg22
g353
sg23
g355
sg24
Vhttps://api.cognitive.microsoft.com/api/v5/#WebPages.33
p358
ssg26
g358
sg27
Nsg28
g355
sbag1
(g2
g3
Ntp359
Rp360
(dp361
g7
VCruise Insurance | Compare Heaps of Quotes & Save!
p362
sg9
Vhttps://www.comparetravelinsurance.com.au/cruise-insurance
p363
sg11
Vhttps://www.bing.com/cr?IG=AA704C008473402B82A8A63FABAF21CD&CID=32662BF9699F640D2EC121A668766541&rd=1&h=mfRQfIMUpaBZypyUddr10-f6ltA95n9fT7veIDtcPQQ&v=1&r=https%3a%2f%2fwww.comparetravelinsurance.com.au%2fcruise-insurance&p=DevEx,5592.1
p364
sg13
g362
sg14
VCompare cruise insurance from Australia's reputable companies today. Compare policies and levels of cover and find the best cruise insurance for you.
p365
sg16
(dp366
g18
g362
sg19
g364
sg20
V2017-04-03T00:51:00
p367
sg22
g363
sg23
g365
sg24
Vhttps://api.cognitive.microsoft.com/api/v5/#WebPages.34
p368
ssg26
g368
sg27
Nsg28
g365
sbag1
(g2
g3
Ntp369
Rp370
(dp371
g7
VCruise Travel Insurance, Specialist Cruise Trip Insurance
p372
sg9
Vhttps://www.worldwideinsure.com/cruise-travel-insurance.htm
p373
sg11
Vhttps://www.bing.com/cr?IG=AA704C008473402B82A8A63FABAF21CD&CID=32662BF9699F640D2EC121A668766541&rd=1&h=14a0N_o0YaD1nhFy0p2GQokjQa227A3UWkZNmNa2CpU&v=1&r=https%3a%2f%2fwww.worldwideinsure.com%2fcruise-travel-insurance.htm&p=DevEx,5605.1
p374
sg13
g372
sg14
VGet the best cruise travel insurance now from Worldwide Insure. Specialist cruise trip insurance for any location - no age limit, instant online quote, competitive price.
p375
sg16
(dp376
g18
g372
sg19
g374
sg20
V2017-03-31T23:19:00
p377
sg22
g373
sg23
g375
sg24
Vhttps://api.cognitive.microsoft.com/api/v5/#WebPages.35
p378
ssg26
g378
sg27
Nsg28
g375
sbag1
(g2
g3
Ntp379
Rp380
(dp381
g7
VCheap Cruise Travel Insurance | Thomas Cook
p382
sg9
Vhttps://www.thomascook.com/holiday-extras/travel-insurance/cruise...
p383
sg11
Vhttps://www.bing.com/cr?IG=AA704C008473402B82A8A63FABAF21CD&CID=32662BF9699F640D2EC121A668766541&rd=1&h=c5IoWsV0egzzR_lgRW_kVKA8qaV5ge8B7wvhz1PXdJ8&v=1&r=https%3a%2f%2fwww.thomascook.com%2fholiday-extras%2ftravel-insurance%2fcruise-holiday-insurance%2f&p=DevEx,5618.1
p384
sg13
g382
sg14
VFind great value holiday insurance for cruises with Thomas Cook. Choose from a range of cover options including European & Worldwide travel insurance
p385
sg16
(dp386
g18
g382
sg19
g384
sg20
V2017-04-04T00:50:00
p387
sg22
g383
sg23
g385
sg24
Vhttps://api.cognitive.microsoft.com/api/v5/#WebPages.36
p388
ssg26
g388
sg27
Nsg28
g385
sbag1
(g2
g3
Ntp389
Rp390
(dp391
g7
VCruise Ship Travel | Travelers' Health | CDC
p392
sg9
Vhttps://wwwnc.cdc.gov/travel/page/cruise-ship
p393
sg11
Vhttps://www.bing.com/cr?IG=AA704C008473402B82A8A63FABAF21CD&CID=32662BF9699F640D2EC121A668766541&rd=1&h=585JZkG7difxj2uskGdHUE48JV_SeSiB9banesZQnis&v=1&r=https%3a%2f%2fwwwnc.cdc.gov%2ftravel%2fpage%2fcruise-ship&p=DevEx,5630.1
p394
sg13
g392
sg14
VCruise ship outbreaks of vomiting and diarrhea, primarily caused by norovirus, have been reported. The best way to prevent illness is frequent handwashing with soap and water. ... Travel Health Insurance and Evacuation Insurance. You should check with your regular health insurance company to see if your policy will cover any medical care you might need in another country or on board the ship.
p395
sg16
(dp396
g18
g392
sg19
g394
sg20
V2017-04-03T16:31:00
p397
sg22
g393
sg23
g395
sg24
Vhttps://api.cognitive.microsoft.com/api/v5/#WebPages.37
p398
ssg26
g398
sg27
Nsg28
g395
sbag1
(g2
g3
Ntp399
Rp400
(dp401
g7
VCruise Travel Insurance | Compare and Save 40% or More
p402
sg9
Vwww.tripinsurance.com/cruise-travel-insurance
p403
sg11
Vhttp://www.bing.com/cr?IG=AA704C008473402B82A8A63FABAF21CD&CID=32662BF9699F640D2EC121A668766541&rd=1&h=HO2WS2Emw_D9SwoIZK1g9IRp-G-QfIMYqOnSb9HSlBg&v=1&r=http%3a%2f%2fwww.tripinsurance.com%2fcruise-travel-insurance&p=DevEx,5643.1
p404
sg13
g402
sg14
VCruise Travel Insurance \u2013 What to consider when insuring a cruise We've pulled together a comprehensive guide for buying cruise insurance that will save you money and help you get the best travel insurance coverage.
p405
sg16
(dp406
g18
g402
sg19
g404
sg20
V2017-03-28T21:58:00
p407
sg22
g403
sg23
g405
sg24
Vhttps://api.cognitive.microsoft.com/api/v5/#WebPages.38
p408
ssg26
g408
sg27
Nsg28
g405
sbag1
(g2
g3
Ntp409
Rp410
(dp411
g7
VCruise Travel Insurance - InsureandGo USA
p412
sg9
Vwww.insureandgousa.com/travel-insurance/cruise-insurance
p413
sg11
Vhttp://www.bing.com/cr?IG=AA704C008473402B82A8A63FABAF21CD&CID=32662BF9699F640D2EC121A668766541&rd=1&h=0zjD5NnKGU0OEIDgLGZdbhvLhjAwAQwx-676J1nm8wY&v=1&r=http%3a%2f%2fwww.insureandgousa.com%2ftravel-insurance%2fcruise-insurance&p=DevEx,5660.1
p414
sg13
g412
sg14
VCruise Insurance covers you for Missed Cruise Departures, Stolen Baggage, Medical Issues and More! Did we mention 2 kids are covered at no extra charge!
p415
sg16
(dp416
g18
g412
sg19
g414
sg20
V2017-03-22T16:35:00
p417
sg22
g413
sg23
g415
sg24
Vhttps://api.cognitive.microsoft.com/api/v5/#WebPages.39
p418
ssg26
g418
sg27
Nsg28
g415
sbag1
(g2
g3
Ntp419
Rp420
(dp421
g7
VTravel Insurance Services - Trip Cancellation, Study Abroad ...
p422
sg9
Vhttps://www.travelinsure.com
p423
sg11
Vhttps://www.bing.com/cr?IG=AA704C008473402B82A8A63FABAF21CD&CID=32662BF9699F640D2EC121A668766541&rd=1&h=hH_jMiJWE4eY6S3mPgqs3Kd3pYpT6dWRd9Nbb9Lzgec&v=1&r=https%3a%2f%2fwww.travelinsure.com%2f&p=DevEx,5673.1
p424
sg13
g422
sg14
VInsurance for travelers travelling internationally or in the U.S. Our plans include travel insurance trip cancellation, annual coverage, medical emergencies, medicare holders and business travel.
p425
sg16
(dp426
g18
g422
sg19
g424
sg20
V2017-04-03T19:57:00
p427
sg22
g423
sg23
g425
sg24
Vhttps://api.cognitive.microsoft.com/api/v5/#WebPages.40
p428
ssg26
g428
sg27
Nsg28
g425
sbag1
(g2
g3
Ntp429
Rp430
(dp431
g7
VCruiseCare Cancellation Penalty Waiver Program - Cruises and Cruise ...
p432
sg9
Vwww.celebritycruises.com/media/en_US/pdf/insurance/DofC_CEL_060607.pdf
p433
sg11
Vhttp://www.bing.com/cr?IG=AA704C008473402B82A8A63FABAF21CD&CID=32662BF9699F640D2EC121A668766541&rd=1&h=4aj5Jo63kLQcsvlwc-t1yCCQHP5SIy7qphH0KfIXv2U&v=1&r=http%3a%2f%2fwww.celebritycruises.com%2fmedia%2fen_US%2fpdf%2finsurance%2fDofC_CEL_060607.pdf&p=DevEx,5684.1
p434
sg13
g432
sg14
Vto cancel your cruise for \u201cAny Other Reason\u201d, you may be eligible for Cruise Credits. Brought to you by Celebrity Cruises*. The CruiseCare Travel Insurance Program ... accident and sickness medical benefits, evacuation, baggage protection and much more. Underwritten by Transamerica Casualty Insurance Company. The CruiseCare Worldwide Emergency Assistance Program
p435
sg16
(dp436
g18
g432
sg19
g434
sg20
V2017-03-15T19:17:00
p437
sg22
g433
sg23
g435
sg24
Vhttps://api.cognitive.microsoft.com/api/v5/#WebPages.41
p438
ssg26
g438
sg27
Nsg28
g435
sbag1
(g2
g3
Ntp439
Rp440
(dp441
g7
VCruise \u2014 Global Health Insurance
p442
sg9
Vhttps://www.globalhealthinsurance.com/cruise
p443
sg11
Vhttps://www.bing.com/cr?IG=AA704C008473402B82A8A63FABAF21CD&CID=32662BF9699F640D2EC121A668766541&rd=1&h=awcEgJ8-CSOSgv-Nuh-0nSBokPsPD6KEOt_EXJ2iuH8&v=1&r=https%3a%2f%2fwww.globalhealthinsurance.com%2fcruise&p=DevEx,5694.1
p444
sg13
g442
sg14
VTravel Insurance made simple\u2026 Compare hundreds of travel insurance plans from the top providers and buy immediately or use our comprehensive research features.
p445
sg16
(dp446
g18
g442
sg19
g444
sg20
V2017-03-17T22:50:00
p447
sg22
g443
sg23
g445
sg24
Vhttps://api.cognitive.microsoft.com/api/v5/#WebPages.42
p448
ssg26
g448
sg27
Nsg28
g445
sbag1
(g2
g3
Ntp449
Rp450
(dp451
g7
VGetting Sick At Sea - Cruise Critic
p452
sg9
Vwww.cruisecritic.com/articles.cfm?ID=175
p453
sg11
Vhttp://www.bing.com/cr?IG=AA704C008473402B82A8A63FABAF21CD&CID=32662BF9699F640D2EC121A668766541&rd=1&h=EqSM8ZnRPzECcGhObJ1RcKwndAzAOtxjAfX5Ryvh7Ic&v=1&r=http%3a%2f%2fwww.cruisecritic.com%2farticles.cfm%3fID%3d175&p=DevEx,5710.1
p454
sg13
g452
sg14
VCruise ship policies dictate that if you feel like you might be getting sick or have signs of a serious ailment, such as vomiting or diarrhea, ... You would then file a claim with your personal insurance carrier to recoup what's covered by your health policy. Travel insurance, which usually costs between 5 percent and 8 percent of the total cost of the trip, would cover the rest.
p455
sg16
(dp456
g18
g452
sg19
g454
sg20
V2017-04-02T17:46:00
p457
sg22
g453
sg23
g455
sg24
Vhttps://api.cognitive.microsoft.com/api/v5/#WebPages.43
p458
ssg26
g458
sg27
Nsg28
g455
sbag1
(g2
g3
Ntp459
Rp460
(dp461
g7
VCompare Cruise Travel Insurance With Medical Conditions Cover
p462
sg9
Vmedicaltravelcompared.co.uk/travel-insurance/cruise-travel...
p463
sg11
Vhttp://www.bing.com/cr?IG=AA704C008473402B82A8A63FABAF21CD&CID=32662BF9699F640D2EC121A668766541&rd=1&h=V_tYKPamEgb_iAqMeDDi-gveYxscVdnjDqcrWP63Vts&v=1&r=http%3a%2f%2fmedicaltravelcompared.co.uk%2ftravel-insurance%2fcruise-travel-insurance.aspx&p=DevEx,5723.1
p464
sg13
g462
sg14
VCompare cruise travel Insurance policies that include cover for existing medical conditions. Get quotes to cover Worldwide and European cruises now!
p465
sg16
(dp466
g18
g462
sg19
g464
sg20
V2017-04-02T03:57:00
p467
sg22
g463
sg23
g465
sg24
Vhttps://api.cognitive.microsoft.com/api/v5/#WebPages.44
p468
ssg26
g468
sg27
Nsg28
g465
sbag1
(g2
g3
Ntp469
Rp470
(dp471
g7
VCruise Travel Insurance, Travel Insurance for Cruise
p472
sg9
Vhttps://www.visitorscoverage.com/travel-insurance/cruise-insurance
p473
sg11
Vhttps://www.bing.com/cr?IG=AA704C008473402B82A8A63FABAF21CD&CID=32662BF9699F640D2EC121A668766541&rd=1&h=LzYa4KXoIN4RUCu89EMLIXMfmatwTz2sFHsWufXHIS0&v=1&r=https%3a%2f%2fwww.visitorscoverage.com%2ftravel-insurance%2fcruise-insurance%2f&p=DevEx,5735.1
p474
sg13
g472
sg14
VCruise Insurance. If you are planning to go on a cruise, it is a good idea to get cruise travel insurance. Travel insurances policies come with all kinds of coverage options, starting from Medical emergencies to rental car coverage.
p475
sg16
(dp476
g18
g472
sg19
g474
sg20
V2017-03-24T22:17:00
p477
sg22
g473
sg23
g475
sg24
Vhttps://api.cognitive.microsoft.com/api/v5/#WebPages.45
p478
ssg26
g478
sg27
Nsg28
g475
sbag1
(g2
g3
Ntp479
Rp480
(dp481
g7
VCruise insurance, Cover for Medical Conditions, No Age Limit
p482
sg9
Vhttps://www.goodtogoinsurance.com/cruise-insurance
p483
sg11
Vhttps://www.bing.com/cr?IG=AA704C008473402B82A8A63FABAF21CD&CID=32662BF9699F640D2EC121A668766541&rd=1&h=YxkzOqOsB01cKYS1ZFuAjZlQzy0dqNXJOG7L563SBcc&v=1&r=https%3a%2f%2fwww.goodtogoinsurance.com%2fcruise-insurance&p=DevEx,5752.1
p484
sg13
g482
sg14
VCruise Insurance with Cover for Medical Conditions and no age limits Get a Quotation - Cruise Insurance. It is important that you answer these questions accurately.
p485
sg16
(dp486
g18
g482
sg19
g484
sg20
V2017-03-31T22:56:00
p487
sg22
g483
sg23
g485
sg24
Vhttps://api.cognitive.microsoft.com/api/v5/#WebPages.46
p488
ssg26
g488
sg27
Nsg28
g485
sbag1
(g2
g3
Ntp489
Rp490
(dp491
g7
VTravel Insurance | Cuba Cruise
p492
sg9
Vhttps://yourcubacruise.com/travel-medical-insurance
p493
sg11
Vhttps://www.bing.com/cr?IG=AA704C008473402B82A8A63FABAF21CD&CID=32662BF9699F640D2EC121A668766541&rd=1&h=z-0KnGcANjXaHS-vTTFT_cvUWAM6OrYnK33hpWBa5LE&v=1&r=https%3a%2f%2fyourcubacruise.com%2ftravel-medical-insurance&p=DevEx,5763.1
p494
sg13
g492
sg14
VTravel medical insurance is mandatory for all tourists visiting Cuba. This is a requirement of the Cuban Government and all passengers MUST show proof of medical insurance at the time of boarding. Passengers who are not able to show proof of insurance may be denied boarding without any liability whatsoever on part of the Company and in such case no refund will be provided.
p495
sg16
(dp496
g18
g492
sg19
g494
sg20
V2017-03-17T15:34:00
p497
sg22
g493
sg23
g495
sg24
Vhttps://api.cognitive.microsoft.com/api/v5/#WebPages.47
p498
ssg26
g498
sg27
Nsg28
g495
sbag1
(g2
g3
Ntp499
Rp500
(dp501
g7
VTravel Health Insurance: International Travel Medical Insurance, HTH ...
p502
sg9
Vhttps://www.hthtravelinsurance.com
p503
sg11
Vhttps://www.bing.com/cr?IG=AA704C008473402B82A8A63FABAF21CD&CID=32662BF9699F640D2EC121A668766541&rd=1&h=C1L3GLONWIDd8EY2-KCR_qVlo2T2eW6Uney8Nyecb0U&v=1&r=https%3a%2f%2fwww.hthtravelinsurance.com%2f&p=DevEx,5776.1
p504
sg13
g502
sg14
VHTH Worldwide travel medical insurance protects travelers abroad with international health insurance plans for global travel, living and study.
p505
sg16
(dp506
g18
g502
sg19
g504
sg20
V2017-03-31T07:54:00
p507
sg22
g503
sg23
g505
sg24
Vhttps://api.cognitive.microsoft.com/api/v5/#WebPages.48
p508
ssg26
g508
sg27
Nsg28
g505
sba.