(lp0
ccopy_reg
_reconstructor
p1
(cpy_ms_cognitive.py_ms_cognitive_search.py_ms_cognitive_web_search
WebResult
p2
c__builtin__
object
p3
Ntp4
Rp5
(dp6
S'name'
p7
VPalestinian rocket attacks on Israel - Wikipedia
p8
sS'display_url'
p9
Vhttps://en.wikipedia.org/wiki/Palestinian_rocket_attacks_on_Israel
p10
sS'url'
p11
Vhttps://www.bing.com/cr?IG=2ABD557B539F4B619D93BEA3B3886F4D&CID=19A3A29E5C706B1F3EC3A8C15D996A32&rd=1&h=Ja2t6MXut1VCEgEvzx5aqA8rkUd8bfFkLFZHIyMfemo&v=1&r=https%3a%2f%2fen.wikipedia.org%2fwiki%2fPalestinian_rocket_attacks_on_Israel&p=DevEx,5118.1
p12
sS'title'
p13
g8
sS'snippet'
p14
VAttacks began in 2001. Since then (August 2014 data), almost 20,000 rockets have hit southern Israel, all but a few thousand of them since Israel withdrew from the Gaza Strip in August 2005.
p15
sS'json'
p16
(dp17
Vname
p18
g8
sVurl
p19
g12
sVdateLastCrawled
p20
V2017-04-03T07:12:00
p21
sVdisplayUrl
p22
g10
sVsnippet
p23
g15
sVid
p24
Vhttps://api.cognitive.microsoft.com/api/v5/#WebPages.0
p25
ssS'id'
p26
g25
sS'deep_links'
p27
NsS'description'
p28
g15
sbag1
(g2
g3
Ntp29
Rp30
(dp31
g7
VRocket Attacks on Israel From Gaza - Israel Defense Forces
p32
sg9
Vhttps://www.idfblog.com/facts-figures/rocket-attacks-toward-israel
p33
sg11
Vhttps://www.bing.com/cr?IG=2ABD557B539F4B619D93BEA3B3886F4D&CID=19A3A29E5C706B1F3EC3A8C15D996A32&rd=1&h=UQpPCVrvcRLThNK469v-Xx_ucd6uGAc1sTWQ9krEeH0&v=1&r=https%3a%2f%2fwww.idfblog.com%2ffacts-figures%2frocket-attacks-toward-israel%2f&p=DevEx,5132.1
p34
sg13
g32
sg14
VIsrael\u2019s citizens are regularly threatened by rocket fire from the Gaza Strip. Hamas and other terrorist organizations launch mortars, rockets and missiles towards Israelis cities.
p35
sg16
(dp36
g18
g32
sg19
g34
sg20
V2017-03-30T02:04:00
p37
sg22
g33
sg23
g35
sg24
Vhttps://api.cognitive.microsoft.com/api/v5/#WebPages.1
p38
ssg26
g38
sg27
Nsg28
g35
sbag1
(g2
g3
Ntp39
Rp40
(dp41
g7
VGaza Deaths Spike in 3rd Day of Air Assaults While Rockets Hit Israel ...
p42
sg9
Vhttps://www.nytimes.com/2014/07/11/world/middleeast/israel-gaza.html
p43
sg11
Vhttps://www.bing.com/cr?IG=2ABD557B539F4B619D93BEA3B3886F4D&CID=19A3A29E5C706B1F3EC3A8C15D996A32&rd=1&h=YF3W2yfWJn86Yl-e4keC6Q9LRZHKkcviGlz-bcmgiNg&v=1&r=https%3a%2f%2fwww.nytimes.com%2f2014%2f07%2f11%2fworld%2fmiddleeast%2fisrael-gaza.html&p=DevEx,5144.1
p44
sg13
g42
sg14
VJERUSALEM \u2014 Palestinian deaths from Israel\u2019s aerial attacks in Gaza rose sharply on Thursday, while militants there fired more than 180 rockets into Israel, reaching new targets spread across a vast area of the country. The escalation appeared to increase the likelihood of a ground invasion and
p45
sg16
(dp46
g18
g42
sg19
g44
sg20
V2017-03-29T01:09:00
p47
sg22
g43
sg23
g45
sg24
Vhttps://api.cognitive.microsoft.com/api/v5/#WebPages.2
p48
ssg26
g48
sg27
Nsg28
g45
sbag1
(g2
g3
Ntp49
Rp50
(dp51
g7
VGaza rockets strike Israel: army - Yahoo
p52
sg9
Vhttps://www.yahoo.com/news/gaza-rockets-strike-israel-army...
p53
sg11
Vhttps://www.bing.com/cr?IG=2ABD557B539F4B619D93BEA3B3886F4D&CID=19A3A29E5C706B1F3EC3A8C15D996A32&rd=1&h=VoglwsDZREQmNBAEz4B-6tiLAdRNU1Lljx6D1Z6wRPQ&v=1&r=https%3a%2f%2fwww.yahoo.com%2fnews%2fgaza-rockets-strike-israel-army-221856263.html%3fref%3dgs&p=DevEx,5158.1
p54
sg13
g52
sg14
VJerusalem (AFP) - Rockets fired by Palestinians in the Gaza Strip hit southern Israel on Friday, without causing casualties or damage, the Israeli army said.
p55
sg16
(dp56
g18
g52
sg19
g54
sg20
V2017-03-11T10:50:00
p57
sg22
g53
sg23
g55
sg24
Vhttps://api.cognitive.microsoft.com/api/v5/#WebPages.3
p58
ssg26
g58
sg27
Nsg28
g55
sbag1
(g2
g3
Ntp59
Rp60
(dp61
g7
VIsraeli rockets hit Gaza after bomb blast - theguardian.com
p62
sg9
Vhttps://www.theguardian.com/world/2000/nov/20/israel2
p63
sg11
Vhttps://www.bing.com/cr?IG=2ABD557B539F4B619D93BEA3B3886F4D&CID=19A3A29E5C706B1F3EC3A8C15D996A32&rd=1&h=3oz3NKU7uv9PCBFu0tyYTFsmPz8jG7Ox0c0XVwCgmCg&v=1&r=https%3a%2f%2fwww.theguardian.com%2fworld%2f2000%2fnov%2f20%2fisrael2&p=DevEx,5174.1
p64
sg13
g62
sg14
VIn its most punishing strike yet, Israeli helicopters hit back hard at Palestinian targets in Gaza today, firing dozens of rockets after a roadside bomb blew up an Israeli school bus, killing two and wounding nine.
p65
sg16
(dp66
g18
g62
sg19
g64
sg20
V2017-03-30T06:45:00
p67
sg22
g63
sg23
g65
sg24
Vhttps://api.cognitive.microsoft.com/api/v5/#WebPages.4
p68
ssg26
g68
sg27
Nsg28
g65
sbag1
(g2
g3
Ntp69
Rp70
(dp71
g7
VGaza Rockets Hit Israel as Truce Deadline Looms - NDTV.com
p72
sg9
Vwww.ndtv.com/.../gaza-rockets-hit-israel-as-truce-deadline-looms...
p73
sg11
Vhttp://www.bing.com/cr?IG=2ABD557B539F4B619D93BEA3B3886F4D&CID=19A3A29E5C706B1F3EC3A8C15D996A32&rd=1&h=ysvMotPtHa8m8cG-8vBvjYOaPJBY3xpAiPan3Yr8BYE&v=1&r=http%3a%2f%2fwww.ndtv.com%2fworld-news%2fgaza-rockets-hit-israel-as-truce-deadline-looms-646859&p=DevEx,5190.1
p74
sg13
g72
sg14
VTwo rockets fired by Gaza militants slammed into southern Israel before dawn on Friday, heightening fears that a 72-hour truce nearing its end would not be renewed.
p75
sg16
(dp76
g18
g72
sg19
g74
sg20
V2017-03-16T00:05:00
p77
sg22
g73
sg23
g75
sg24
Vhttps://api.cognitive.microsoft.com/api/v5/#WebPages.5
p78
ssg26
g78
sg27
Nsg28
g75
sbag1
(g2
g3
Ntp79
Rp80
(dp81
g7
VGaza air strikes 'kill five' as rockets hit Israel - BBC News
p82
sg9
Vwww.bbc.com/news/world-middle-east-28721914
p83
sg11
Vhttp://www.bing.com/cr?IG=2ABD557B539F4B619D93BEA3B3886F4D&CID=19A3A29E5C706B1F3EC3A8C15D996A32&rd=1&h=2T8w55iyKbv1vzIsIrpY8iU_a4ZdvI79Qekr1r3wPyE&v=1&r=http%3a%2f%2fwww.bbc.com%2fnews%2fworld-middle-east-28721914&p=DevEx,5203.1
p84
sg13
g82
sg14
VMedia caption James Reynolds reports from a hospital in Gaza on the resumption of violence. Five people have been killed in Israeli air strikes on Gaza, health officials there say, as Palestinian militants continue to fire rockets at Israel.
p85
sg16
(dp86
g18
g82
sg19
g84
sg20
V2017-01-08T03:04:00
p87
sg22
g83
sg23
g85
sg24
Vhttps://api.cognitive.microsoft.com/api/v5/#WebPages.6
p88
ssg26
g88
sg27
Nsg28
g85
sbag1
(g2
g3
Ntp89
Rp90
(dp91
g7
VList of Palestinian rocket attacks on Israel, 2012 - Wikipedia
p92
sg9
Vhttps://en.wikipedia.org/wiki/List_of_Palestinian_rocket_attacks...
p93
sg11
Vhttps://www.bing.com/cr?IG=2ABD557B539F4B619D93BEA3B3886F4D&CID=19A3A29E5C706B1F3EC3A8C15D996A32&rd=1&h=FZqONYUo-sMUhdFDYt1n3pRzoar9s0SumbkQFnxG0sw&v=1&r=https%3a%2f%2fen.wikipedia.org%2fwiki%2fList_of_Palestinian_rocket_attacks_on_Israel%2c_2012&p=DevEx,5226.1
p94
sg13
g92
sg14
VIn mid-March there was a significant escalation of Palestinian rocket attacks on Israel. Throughout the month, according to the Israel Security Agency's routine monthly summary, Palestinians fired 173 rockets and 19 mortar shells at Israel in 156 separate attacks. ... At 7 am, a rocket launched from Gaza hit the Sha'ar HaNegev Regional Council. August 8. A Qassam rocket hit the Eshkol Regional Council, with no injuries reported.
p95
sg16
(dp96
VsnippetAttribution
p97
(dp98
VlicenseNotice
p99
VText under CC-BY-SA license
p100
sVlicense
p101
(dp102
g19
Vhttp://www.bing.com/cr?IG=2ABD557B539F4B619D93BEA3B3886F4D&CID=19A3A29E5C706B1F3EC3A8C15D996A32&rd=1&h=tJYnHtBaEymlKo_fRl0wo_ZHu4dAaCwVMH_BvcixOgM&v=1&r=http%3a%2f%2fcreativecommons.org%2flicenses%2fby-sa%2f3.0%2f&p=DevEx,6040.1
p103
sg18
VCC-BY-SA
p104
sssg18
g92
sg19
g94
sg20
V2017-03-17T12:18:00
p105
sg22
g93
sg23
g95
sg24
Vhttps://api.cognitive.microsoft.com/api/v5/#WebPages.7
p106
ssg26
g106
sg27
Nsg28
g95
sbag1
(g2
g3
Ntp107
Rp108
(dp109
g7
VYnetnews News - Gaza rockets hit south Israel
p110
sg9
Vwww.ynetnews.com/articles/0,7340,L-4546417,00.html
p111
sg11
Vhttp://www.bing.com/cr?IG=2ABD557B539F4B619D93BEA3B3886F4D&CID=19A3A29E5C706B1F3EC3A8C15D996A32&rd=1&h=jGfeVySwbWS-zyF8tqZ6J7WB9bgW0Kq6H-nlXyxz88M&v=1&r=http%3a%2f%2fwww.ynetnews.com%2farticles%2f0%2c7340%2cL-4546417%2c00.html&p=DevEx,5240.1
p112
sg13
g110
sg14
Vynet News: Ynetnews brings top breaking news from Israel, the Middle East, the War on Terrorism through the Israeli Palestinian Conflict to business & culture.
p113
sg16
(dp114
g18
g110
sg19
g112
sg20
V2017-03-17T15:05:00
p115
sg22
g111
sg23
g113
sg24
Vhttps://api.cognitive.microsoft.com/api/v5/#WebPages.8
p116
ssg26
g116
sg27
Nsg28
g113
sbag1
(g2
g3
Ntp117
Rp118
(dp119
g7
VIsraeli planes strike Gaza after rockets hit south | The Times of Israel
p120
sg9
Vwww.timesofisrael.com/israeli...strike-gaza-after-rockets-hit-israel
p121
sg11
Vhttp://www.bing.com/cr?IG=2ABD557B539F4B619D93BEA3B3886F4D&CID=19A3A29E5C706B1F3EC3A8C15D996A32&rd=1&h=jWAFujgRT1dcxKtP8RnXiLIdWX7CkJbSDkYEXIK5hww&v=1&r=http%3a%2f%2fwww.timesofisrael.com%2fisraeli-planes-said-to-strike-gaza-after-rockets-hit-israel%2f&p=DevEx,5254.1
p122
sg13
g120
sg14
VIsraeli planes strike Gaza after rockets hit south IDF says it targeted \u2018terrorist infrastructure\u2019 shortly after rocket attack claimed by Salafist group; no casualties reported
p123
sg16
(dp124
g18
g120
sg19
g122
sg20
V2017-03-17T19:10:00
p125
sg22
g121
sg23
g123
sg24
Vhttps://api.cognitive.microsoft.com/api/v5/#WebPages.9
p126
ssg26
g126
sg27
Nsg28
g123
sbag1
(g2
g3
Ntp127
Rp128
(dp129
g7
VTwo rockets from Gaza hit Israel: army - english.alarabiya.net
p130
sg9
Venglish.alarabiya.net/articles/2012/09/07/236581.html
p131
sg11
Vhttp://www.bing.com/cr?IG=2ABD557B539F4B619D93BEA3B3886F4D&CID=19A3A29E5C706B1F3EC3A8C15D996A32&rd=1&h=JrWA_pTuR17Bn9NlJpUjf-HqYJi8amxscODHTQdt6y4&v=1&r=http%3a%2f%2fenglish.alarabiya.net%2farticles%2f2012%2f09%2f07%2f236581.html&p=DevEx,5267.1
p132
sg13
g130
sg14
VPalestinian militants in Gaza fired two rockets at southern Israel, which exploded in open fields early on Friday and caused no damage, a military spokesman told AFP.
p133
sg16
(dp134
g18
g130
sg19
g132
sg20
V2017-04-05T22:32:00
p135
sg22
g131
sg23
g133
sg24
Vhttps://api.cognitive.microsoft.com/api/v5/#WebPages.10
p136
ssg26
g136
sg27
Nsg28
g133
sbag1
(g2
g3
Ntp137
Rp138
(dp139
g7
V7 Gaza rockets hit Israel - news.com.au
p140
sg9
Vwww.news.com.au/world/breaking-news/gaza-rockets-hit-israel/news...
p141
sg11
Vhttp://www.bing.com/cr?IG=2ABD557B539F4B619D93BEA3B3886F4D&CID=19A3A29E5C706B1F3EC3A8C15D996A32&rd=1&h=mBCJz3rRl7NGwwtPbBeok6_n55sBr63VOYKHwU2I3Jk&v=1&r=http%3a%2f%2fwww.news.com.au%2fworld%2fbreaking-news%2fgaza-rockets-hit-israel%2fnews-story%2f7b5174c75794c1548c14739d96554ec4&p=DevEx,5278.1
p142
sg13
g140
sg14
VSEVEN rockets fired from Gaza have crashed into southern Israel without harming anyone, hours after an Israeli air strike killed a Hamas militant.
p143
sg16
(dp144
g18
g140
sg19
g142
sg20
V2017-02-02T07:31:00
p145
sg22
g141
sg23
g143
sg24
Vhttps://api.cognitive.microsoft.com/api/v5/#WebPages.11
p146
ssg26
g146
sg27
Nsg28
g143
sbag1
(g2
g3
Ntp147
Rp148
(dp149
g7
VRockets fired from the Gaza Strip - theguardian.com
p150
sg9
Vhttps://www.theguardian.com/world/2015/sep/19/israeli-aircraft-hit...
p151
sg11
Vhttps://www.bing.com/cr?IG=2ABD557B539F4B619D93BEA3B3886F4D&CID=19A3A29E5C706B1F3EC3A8C15D996A32&rd=1&h=WoX2rspeAS5xq6_Wc0tNYxQvsgtEAeI-6UN-EXYfKow&v=1&r=https%3a%2f%2fwww.theguardian.com%2fworld%2f2015%2fsep%2f19%2fisraeli-aircraft-hit-targets-in-gaza-after-rockets-are-fired-on-town&p=DevEx,5293.1
p152
sg13
g150
sg14
VIsrael has launched airstrikes on a Hamas site in the northern Gaza Strip after two rockets were fired into southern Israel. Three air strikes were carried out by the Israeli air force on Friday evening, reportedly targeting a Hamas training facility.
p153
sg16
(dp154
g18
g150
sg19
g152
sg20
V2017-03-30T09:49:00
p155
sg22
g151
sg23
g153
sg24
Vhttps://api.cognitive.microsoft.com/api/v5/#WebPages.12
p156
ssg26
g156
sg27
Nsg28
g153
sbag1
(g2
g3
Ntp157
Rp158
(dp159
g7
VGaza militant rocket hits Israel, Israel responds with air strikes ...
p160
sg9
Vwww.reuters.com/article/us-israeli-palestinians-rocket-idUSKCN10W0HZ
p161
sg11
Vhttp://www.bing.com/cr?IG=2ABD557B539F4B619D93BEA3B3886F4D&CID=19A3A29E5C706B1F3EC3A8C15D996A32&rd=1&h=gW82UdyvkWQ_x1f3yRtWHiwu3_4yQhq_rhhYINImG0A&v=1&r=http%3a%2f%2fwww.reuters.com%2farticle%2fus-israeli-palestinians-rocket-idUSKCN10W0HZ&p=DevEx,5308.1
p162
sg13
g160
sg14
VPalestinian militants in the Gaza Strip launched a rocket that landed in the Israeli border town of Sderot on Sunday and Israeli aircraft and tanks responded by shelling the Gaza town of Beit Hanoun, ... 14 Gaza rockets had hit Israel. Israeli army spokesman Lieutenant-Colonel Peter Lerner said in a statement that the military "remains committed to the stability of the region and operated in order to bring quiet to the people of southern Israel."
p163
sg16
(dp164
g18
g160
sg19
g162
sg20
V2017-04-01T05:21:00
p165
sg22
g161
sg23
g163
sg24
Vhttps://api.cognitive.microsoft.com/api/v5/#WebPages.13
p166
ssg26
g166
sg27
Nsg28
g163
sbag1
(g2
g3
Ntp167
Rp168
(dp169
g7
VIsrael hit by Hamas rocket salvo - BBC News
p170
sg9
Vwww.bbc.co.uk/news/world-middle-east-28192747
p171
sg11
Vhttp://www.bing.com/cr?IG=2ABD557B539F4B619D93BEA3B3886F4D&CID=19A3A29E5C706B1F3EC3A8C15D996A32&rd=1&h=KGqrjjiclDxomIsVVn_k13MDB-wcGjrHZsSiXKj2iS0&v=1&r=http%3a%2f%2fwww.bbc.co.uk%2fnews%2fworld-middle-east-28192747&p=DevEx,5325.1
p172
sg13
g170
sg14
VMedia caption Israel said the air strikes against Gaza are in response to rocket attacks. The Palestinian Islamist movement Hamas has fired a volley of rockets into southern Israel prompting air strikes by Israeli forces.
p173
sg16
(dp174
g18
g170
sg19
g172
sg20
V2017-03-25T14:45:00
p175
sg22
g171
sg23
g173
sg24
Vhttps://api.cognitive.microsoft.com/api/v5/#WebPages.14
p176
ssg26
g176
sg27
Nsg28
g173
sbag1
(g2
g3
Ntp177
Rp178
(dp179
g7
VGaza rockets hit south Israel, army strikes back: officials - reuters.com
p180
sg9
Vwww.reuters.com/article/us-israel-palestinian-rockets-idUSBREA3K09...
p181
sg11
Vhttp://www.bing.com/cr?IG=2ABD557B539F4B619D93BEA3B3886F4D&CID=19A3A29E5C706B1F3EC3A8C15D996A32&rd=1&h=XBgZQMrKUv_o82eGFu70diyJg06Yubw2IMCs1B3pwqM&v=1&r=http%3a%2f%2fwww.reuters.com%2farticle%2fus-israel-palestinian-rockets-idUSBREA3K09D20140421&p=DevEx,5339.1
p182
sg13
g180
sg14
VGAZA Seven rockets fired from the Gaza Strip landed in southern Israel during the Jewish Passover holiday on Monday, drawing retaliatory air strikes from the Israeli army, officials said, the first cross-border clash in several weeks. Israel's army said its strikes hit two training camps run by
p183
sg16
(dp184
g18
g180
sg19
g182
sg20
V2017-04-01T19:25:00
p185
sg22
g181
sg23
g183
sg24
Vhttps://api.cognitive.microsoft.com/api/v5/#WebPages.15
p186
ssg26
g186
sg27
Nsg28
g183
sbag1
(g2
g3
Ntp187
Rp188
(dp189
g7
VGaza rockets hit southern Israel | Toronto Star
p190
sg9
Vhttps://www.thestar.com/.../08/gaza_rockets_hit_southern_israel.html
p191
sg11
Vhttps://www.bing.com/cr?IG=2ABD557B539F4B619D93BEA3B3886F4D&CID=19A3A29E5C706B1F3EC3A8C15D996A32&rd=1&h=MoBEAKCDtyivnZhiiKOZxfCJaCBq2twSfGe3WiV4MBI&v=1&r=https%3a%2f%2fwww.thestar.com%2fnews%2fworld%2f2009%2f02%2f08%2fgaza_rockets_hit_southern_israel.html&p=DevEx,5355.1
p192
sg13
g190
sg14
VJERUSALEM\u2013Two rockets fired by Palestinian militants struck southern Israel on Sunday, Israel's military said, violating an informal truce even as Israel and Gaza's Hamas rulers appeared to hurry closer to a long-term cease-fire deal two days before Israeli elections.
p193
sg16
(dp194
g18
g190
sg19
g192
sg20
V2017-03-10T03:23:00
p195
sg22
g191
sg23
g193
sg24
Vhttps://api.cognitive.microsoft.com/api/v5/#WebPages.16
p196
ssg26
g196
sg27
Nsg28
g193
sbag1
(g2
g3
Ntp197
Rp198
(dp199
g7
V14 Gaza Rockets Hit Southern Israel: Army - NDTV.com
p200
sg9
Vwww.ndtv.com/world-news/14-gaza-rockets-hit-southern-israel-army...
p201
sg11
Vhttp://www.bing.com/cr?IG=2ABD557B539F4B619D93BEA3B3886F4D&CID=19A3A29E5C706B1F3EC3A8C15D996A32&rd=1&h=yo1uTSrUvz8NbQchV-s1xW5bFEFoYBSh1XlXxYOjcpc&v=1&r=http%3a%2f%2fwww.ndtv.com%2fworld-news%2f14-gaza-rockets-hit-southern-israel-army-582386&p=DevEx,5370.1
p202
sg13
g200
sg14
VAt least 14 rockets and mortar rounds fired by militants in Gaza struck southern Israel on Monday morning, causing no injuries but damaging a home, the army said.
p203
sg16
(dp204
g18
g200
sg19
g202
sg20
V2017-02-13T21:13:00
p205
sg22
g201
sg23
g203
sg24
Vhttps://api.cognitive.microsoft.com/api/v5/#WebPages.17
p206
ssg26
g206
sg27
Nsg28
g203
sbag1
(g2
g3
Ntp207
Rp208
(dp209
g7
VGaza Rockets Hit Israel Despite Ceasefire - rferl.org
p210
sg9
Vwww.rferl.org/a/1371476.html
p211
sg11
Vhttp://www.bing.com/cr?IG=2ABD557B539F4B619D93BEA3B3886F4D&CID=19A3A29E5C706B1F3EC3A8C15D996A32&rd=1&h=8MQ82pDej-w6h73ZW0nDrhnI7MC8X9Wbj6mknMIBILo&v=1&r=http%3a%2f%2fwww.rferl.org%2fa%2f1371476.html&p=DevEx,5382.1
p212
sg13
g210
sg14
VGAZA (Reuters) -- Palestinian militants in the Gaza Strip launched rockets into southern Israel on January 18 in defiance of the unilateral ceasefire that Israel declared hours earlier and which Hamas pledged to ignore. After 22 days of fierce assaults in the Gaza Strip, Israel appeared to be back
p213
sg16
(dp214
g18
g210
sg19
g212
sg20
V2017-04-03T15:58:00
p215
sg22
g211
sg23
g213
sg24
Vhttps://api.cognitive.microsoft.com/api/v5/#WebPages.18
p216
ssg26
g216
sg27
Nsg28
g213
sbag1
(g2
g3
Ntp217
Rp218
(dp219
g7
V14 Gaza rockets hit southern Israel: Army | Business Standard News
p220
sg9
Vwww.business-standard.com/.../14-gaza-rockets-hit-southern-israel...
p221
sg11
Vhttp://www.bing.com/cr?IG=2ABD557B539F4B619D93BEA3B3886F4D&CID=19A3A29E5C706B1F3EC3A8C15D996A32&rd=1&h=8dF037gJ1aDXmZV3iLNLWIfbgXGNAwuGDQ8pZoaC1to&v=1&r=http%3a%2f%2fwww.business-standard.com%2farticle%2finternational%2f14-gaza-rockets-hit-southern-israel-army-114063000434_1.html&p=DevEx,5398.1
p222
sg13
g220
sg14
VRead more about 14 Gaza rockets hit southern Israel: Army on Business Standard. The latest incident added to the already-high tension in the area which has seen a surge in rocket fire over the past two weeks
p223
sg16
(dp224
g18
g220
sg19
g222
sg20
V2017-02-26T22:32:00
p225
sg22
g221
sg23
g223
sg24
Vhttps://api.cognitive.microsoft.com/api/v5/#WebPages.19
p226
ssg26
g226
sg27
Nsg28
g223
sbag1
(g2
g3
Ntp227
Rp228
(dp229
g7
VYnetnews News - 2 Gaza rockets hit Israel; no injuries
p230
sg9
Vwww.ynetnews.com/articles/0,7340,L-4213644,00.html
p231
sg11
Vhttp://www.bing.com/cr?IG=2ABD557B539F4B619D93BEA3B3886F4D&CID=19A3A29E5C706B1F3EC3A8C15D996A32&rd=1&h=v7pWC_UZptYP8cvp_lQMSeuOAor3Fv4pIa7WVantPts&v=1&r=http%3a%2f%2fwww.ynetnews.com%2farticles%2f0%2c7340%2cL-4213644%2c00.html&p=DevEx,5411.1
p232
sg13
g230
sg14
VTwo rockets fired by Palestinian terrorists in Gaza Sunday morning exploded in open areas located within the Merhavim Regional Council, near Netivot. There were no reports of injury or damage. The rockets were fired in the direction of Netivot. A tense calm has prevailed over southern Israel since
p233
sg16
(dp234
g18
g230
sg19
g232
sg20
V2017-03-19T12:22:00
p235
sg22
g231
sg23
g233
sg24
Vhttps://api.cognitive.microsoft.com/api/v5/#WebPages.20
p236
ssg26
g236
sg27
Nsg28
g233
sbag1
(g2
g3
Ntp237
Rp238
(dp239
g7
VHamas Rockets Hit Major Israeli Cities - idfblog.com
p240
sg9
Vhttps://www.idfblog.com/2014/07/09/hamas-rockets-fired-at-major...
p241
sg11
Vhttps://www.bing.com/cr?IG=2ABD557B539F4B619D93BEA3B3886F4D&CID=19A3A29E5C706B1F3EC3A8C15D996A32&rd=1&h=mjY9yGsHgtB-h-5iy-k25bxzGY6tGO7zhgHwvYuPBAg&v=1&r=https%3a%2f%2fwww.idfblog.com%2f2014%2f07%2f09%2fhamas-rockets-fired-at-major-israeli-cities%2f&p=DevEx,5423.1
p242
sg13
g240
sg14
VYesterday evening, terrorist organizations operating in Gaza launched a salvo of 45 rockets at major Israeli cities, reaching as far as Hadera, located 100 km from Gaza.
p243
sg16
(dp244
g18
g240
sg19
g242
sg20
V2017-03-28T14:13:00
p245
sg22
g241
sg23
g243
sg24
Vhttps://api.cognitive.microsoft.com/api/v5/#WebPages.21
p246
ssg26
g246
sg27
Nsg28
g243
sbag1
(g2
g3
Ntp247
Rp248
(dp249
g7
VIsrael hit by Hamas rocket salvo - BBC News
p250
sg9
Vwww.bbc.com/news/world-middle-east-28192747
p251
sg11
Vhttp://www.bing.com/cr?IG=2ABD557B539F4B619D93BEA3B3886F4D&CID=19A3A29E5C706B1F3EC3A8C15D996A32&rd=1&h=8iOZiN_j9cZoCZLlbRe-kTdw6S5ST6iZG1cWAgEMBZo&v=1&r=http%3a%2f%2fwww.bbc.com%2fnews%2fworld-middle-east-28192747&p=DevEx,5439.1
p252
sg13
g250
sg14
VHamas fires a volley of rockets into southern Israel, prompting air strikes on Gaza, as Israel calls up hundreds of reservists.
p253
sg16
(dp254
g18
g250
sg19
g252
sg20
V2017-04-01T23:36:00
p255
sg22
g251
sg23
g253
sg24
Vhttps://api.cognitive.microsoft.com/api/v5/#WebPages.22
p256
ssg26
g256
sg27
Nsg28
g253
sbag1
(g2
g3
Ntp257
Rp258
(dp259
g7
VGaza rockets hit southern Israel as truce unravels | Business Line
p260
sg9
Vwww.thehindubusinessline.com/news/world/gaza-rockets-hit-israel/...
p261
sg11
Vhttp://www.bing.com/cr?IG=2ABD557B539F4B619D93BEA3B3886F4D&CID=19A3A29E5C706B1F3EC3A8C15D996A32&rd=1&h=SCxx_BT8lbTuF89hN95E26c7z46m_SQe4STbF_BAUXU&v=1&r=http%3a%2f%2fwww.thehindubusinessline.com%2fnews%2fworld%2fgaza-rockets-hit-israel%2farticle6294901.ece&p=DevEx,5451.1
p262
sg13
g260
sg14
VTwo rockets fired by Gaza militants slammed into southern Israel before dawn today, as a 72-hour truce appeared to be reaching an end. And two senior Hamas officials said the Palestinian militant movement would not extend a 72-hour ceasefire in Gaza that expires at 0500 GMT today, accusing Israel of rejecting their demands for a truce.
p263
sg16
(dp264
g18
g260
sg19
g262
sg20
V2017-03-27T05:56:00
p265
sg22
g261
sg23
g263
sg24
Vhttps://api.cognitive.microsoft.com/api/v5/#WebPages.23
p266
ssg26
g266
sg27
Nsg28
g263
sbag1
(g2
g3
Ntp267
Rp268
(dp269
g7
VGaza Rockets Hit Israel After Hamas Ceasefire Announcement
p270
sg9
Vhttps://www.algemeiner.com/2012/06/21/gaza-rockets-hit-israel...
p271
sg11
Vhttps://www.bing.com/cr?IG=2ABD557B539F4B619D93BEA3B3886F4D&CID=19A3A29E5C706B1F3EC3A8C15D996A32&rd=1&h=qxGZZPWPVTUFRcsDcFKhhTIFNSTmuMb2aPyk-EnHoks&v=1&r=https%3a%2f%2fwww.algemeiner.com%2f2012%2f06%2f21%2fgaza-rockets-hit-israel-after-hamas-ceasefire-announcement%2f&p=DevEx,5463.1
p272
sg13
g270
sg14
VOn Wednesday, the Gaza based terrorist group Hamas claimed they were ready for a ceasefire with Israel after a week of bloodshed on both sides.
p273
sg16
(dp274
g18
g270
sg19
g272
sg20
V2017-04-01T05:41:00
p275
sg22
g271
sg23
g273
sg24
Vhttps://api.cognitive.microsoft.com/api/v5/#WebPages.24
p276
ssg26
g276
sg27
Nsg28
g273
sbag1
(g2
g3
Ntp277
Rp278
(dp279
g7
VGaza rockets hit Israel: EU 'losing patience' but clueless about Hamas ...
p280
sg9
Vwww.foxnews.com/opinion/2014/07/10/gaza-rockets-hit-israel-eu...
p281
sg11
Vhttp://www.bing.com/cr?IG=2ABD557B539F4B619D93BEA3B3886F4D&CID=19A3A29E5C706B1F3EC3A8C15D996A32&rd=1&h=y-S34xcZMv4CKEgaeHiLiZb0032wiGIi-o5wDw7ZxjU&v=1&r=http%3a%2f%2fwww.foxnews.com%2fopinion%2f2014%2f07%2f10%2fgaza-rockets-hit-israel-eu-losing-patience-but-clueless-about-hamas-attacks.html&p=DevEx,5479.1
p282
sg13
g280
sg14
VAs Hamas rocket attacks on Israel intensify, the European Union seems to have a case of amnesia over who, exactly, ... Gaza rockets hit Israel: EU 'losing patience' but clueless about Hamas attacks. By Daniel S. Mariaschin Published July 10, 2014. FoxNews.com. Facebook 0 Twitter 0 livefyre Email Print . As Hamas rocket attacks on Israel intensify, the ...
p283
sg16
(dp284
g18
g280
sg19
g282
sg20
V2017-03-19T17:57:00
p285
sg22
g281
sg23
g283
sg24
Vhttps://api.cognitive.microsoft.com/api/v5/#WebPages.25
p286
ssg26
g286
sg27
Nsg28
g283
sbag1
(g2
g3
Ntp287
Rp288
(dp289
g7
VGaza Conflict Day 22: Hamas Rockets Hit Gaza Hospital | HonestReporting
p290
sg9
Vhonestreporting.com/idns-07292014-shifa-hospital
p291
sg11
Vhttp://www.bing.com/cr?IG=2ABD557B539F4B619D93BEA3B3886F4D&CID=19A3A29E5C706B1F3EC3A8C15D996A32&rd=1&h=X5YsORgbEjgxjCSPXxbxU8ZyYNx9VgeVn2prhA2PDxk&v=1&r=http%3a%2f%2fhonestreporting.com%2fidns-07292014-shifa-hospital%2f&p=DevEx,5494.1
p292
sg13
g290
sg14
VToday's Top Stories1. An errant Hamas rockets hit Gaza's Shifa Hospital and the Al Shati refugee camp. An IDF spokesman told Sky News:However, the Israel Defence Forces (IDF) denied responsibility
p293
sg16
(dp294
g18
g290
sg19
g292
sg20
V2017-04-02T12:55:00
p295
sg22
g291
sg23
g293
sg24
Vhttps://api.cognitive.microsoft.com/api/v5/#WebPages.26
p296
ssg26
g296
sg27
Nsg28
g293
sbag1
(g2
g3
Ntp297
Rp298
(dp299
g7
VRocket fired from Gaza hits southern Israel | The Times of Israel
p300
sg9
Vwww.timesofisrael.com/...rocket-fired-from-gaza-hits-southern-israel
p301
sg11
Vhttp://www.bing.com/cr?IG=2ABD557B539F4B619D93BEA3B3886F4D&CID=19A3A29E5C706B1F3EC3A8C15D996A32&rd=1&h=YF23KqJP5XXnktiAb52jR2iZwuwoTGGcvSabzuSpzLI&v=1&r=http%3a%2f%2fwww.timesofisrael.com%2fat-least-one-rocket-fired-from-gaza-hits-southern-israel%2f&p=DevEx,5508.1
p302
sg13
g300
sg14
VRocket fired from Gaza hits southern Israel Missile hits near Gan Yavne, outside Ashdod, no injuries or damage reported; attack apparently result of internal Islamic Jihad dispute
p303
sg16
(dp304
g18
g300
sg19
g302
sg20
V2017-03-17T15:27:00
p305
sg22
g301
sg23
g303
sg24
Vhttps://api.cognitive.microsoft.com/api/v5/#WebPages.27
p306
ssg26
g306
sg27
Nsg28
g303
sbag1
(g2
g3
Ntp307
Rp308
(dp309
g7
VGaza rockets hit south Israel, army strikes back: officials
p310
sg9
Vnews.yahoo.com/gaza-rocket-salvo-hits-southern-israel...090958787.html
p311
sg11
Vhttp://www.bing.com/cr?IG=2ABD557B539F4B619D93BEA3B3886F4D&CID=19A3A29E5C706B1F3EC3A8C15D996A32&rd=1&h=xl06NV5XSKlA_pyjnCJzr_MjINcBBErcBWiK7JY8N5I&v=1&r=http%3a%2f%2fnews.yahoo.com%2fgaza-rocket-salvo-hits-southern-israel-army-090958787.html&p=DevEx,5522.1
p312
sg13
g310
sg14
VSeven rockets fired from the Gaza Strip landed in southern Israel during the Jewish Passover holiday on Monday, drawing retaliatory air strikes from the Israeli army, officials said, the first cross-border clash in several weeks. Israel's army said its strikes hit two training camps run by Hamas
p313
sg16
(dp314
g18
g310
sg19
g312
sg20
V2017-03-27T08:02:00
p315
sg22
g311
sg23
g313
sg24
Vhttps://api.cognitive.microsoft.com/api/v5/#WebPages.28
p316
ssg26
g316
sg27
Nsg28
g313
sbag1
(g2
g3
Ntp317
Rp318
(dp319
g7
V14 Gaza rockets hit southern Israel - now.mmedia.me
p320
sg9
Vhttps://now.mmedia.me/.../553796-14-gaza-rockets-hit-southern-israel
p321
sg11
Vhttps://www.bing.com/cr?IG=2ABD557B539F4B619D93BEA3B3886F4D&CID=19A3A29E5C706B1F3EC3A8C15D996A32&rd=1&h=HmkZBCxtRok_yXLEY4wuXQCdcvVgVbp9ZWRQSioERrg&v=1&r=https%3a%2f%2fnow.mmedia.me%2flb%2fen%2fmena%2f553796-14-gaza-rockets-hit-southern-israel&p=DevEx,5534.1
p322
sg13
g320
sg14
VJERUSALEM - At least 14 rockets and mortar rounds fired by militants in Gaza struck southern Israel on Monday morning, causing no injuries but damaging a home, the army said.
p323
sg16
(dp324
g18
g320
sg19
g322
sg20
V2017-04-01T06:31:00
p325
sg22
g321
sg23
g323
sg24
Vhttps://api.cognitive.microsoft.com/api/v5/#WebPages.29
p326
ssg26
g326
sg27
Nsg28
g323
sbag1
(g2
g3
Ntp327
Rp328
(dp329
g7
VGaza fires 4 rockets at Israel \u2014 RT News
p330
sg9
Vhttps://www.rt.com/news/gaza-rockets-hit-sderot-577
p331
sg11
Vhttps://www.bing.com/cr?IG=2ABD557B539F4B619D93BEA3B3886F4D&CID=19A3A29E5C706B1F3EC3A8C15D996A32&rd=1&h=1ETvGRNFZVTY85GMXJCuLMPLyQZOyKeHL_3eqpBM-Nk&v=1&r=https%3a%2f%2fwww.rt.com%2fnews%2fgaza-rockets-hit-sderot-577%2f&p=DevEx,5546.1
p332
sg13
g330
sg14
VA total of four rockets have been fired from Gaza into southern Israel on Thursday. Two of them land in Gaza, one in Sderot and another in Shaar Hanegev, RT's Paula Slier reports. Israeli authorities report no injuries. One of the rockets hit a back yard in Sderot and caused some damage. Another
p333
sg16
(dp334
g18
g330
sg19
g332
sg20
V2017-03-24T07:26:00
p335
sg22
g331
sg23
g333
sg24
Vhttps://api.cognitive.microsoft.com/api/v5/#WebPages.30
p336
ssg26
g336
sg27
Nsg28
g333
sbag1
(g2
g3
Ntp337
Rp338
(dp339
g7
VGaza rockets hit south Israel, army strikes back - World - Chinadaily ...
p340
sg9
Vwww.chinadaily.com.cn/world/2014-04/21/content_17451583.htm
p341
sg11
Vhttp://www.bing.com/cr?IG=2ABD557B539F4B619D93BEA3B3886F4D&CID=19A3A29E5C706B1F3EC3A8C15D996A32&rd=1&h=zZq6ydR93z5dSjiqYPWp2Omwg0IcthddSVPYNxnp92s&v=1&r=http%3a%2f%2fwww.chinadaily.com.cn%2fworld%2f2014-04%2f21%2fcontent_17451583.htm&p=DevEx,5558.1
p342
sg13
g340
sg14
VGAZA - Seven rockets fired from the Gaza Strip landed in southern Israel during the Jewish Passover holiday on Monday, drawing retaliatory air strikes from the Israeli army, officials said, the first cross-border clash in several weeks.
p343
sg16
(dp344
g18
g340
sg19
g342
sg20
V2017-01-05T18:20:00
p345
sg22
g341
sg23
g343
sg24
Vhttps://api.cognitive.microsoft.com/api/v5/#WebPages.31
p346
ssg26
g346
sg27
Nsg28
g343
sbag1
(g2
g3
Ntp347
Rp348
(dp349
g7
VIron Dome intercepts rockets over cities across Israel in ... - jpost.com
p350
sg9
Vwww.jpost.com/...intercepts-second-rocket-over-greater-Tel-Aviv-361994
p351
sg11
Vhttp://www.bing.com/cr?IG=2ABD557B539F4B619D93BEA3B3886F4D&CID=19A3A29E5C706B1F3EC3A8C15D996A32&rd=1&h=7OzWKrkzu3E1Jj7OVV6Ca3dOJQH1Vxw_oO1VSkmmuyY&v=1&r=http%3a%2f%2fwww.jpost.com%2fOperation-Protective-Edge%2fIron-Dome-intercepts-second-rocket-over-greater-Tel-Aviv-361994&p=DevEx,5571.1
p352
sg13
g350
sg14
VPalestinian rockets continued to pound southern Israel throughout the day, with some 120 projectiles striking by the evening. Iron Dome intercepted 23 rockets, shooting down rockets over Ashdod, Ashkelon and Gaza border communities.
p353
sg16
(dp354
g18
g350
sg19
g352
sg20
V2017-04-02T17:47:00
p355
sg22
g351
sg23
g353
sg24
Vhttps://api.cognitive.microsoft.com/api/v5/#WebPages.32
p356
ssg26
g356
sg27
Nsg28
g353
sbag1
(g2
g3
Ntp357
Rp358
(dp359
g7
VOver 60 Rockets Hit Israel, Terrorists Will \u201cPay a Price\u201d - Israel News
p360
sg9
Vhttps://www.breakingisraelnews.com/12248/60-rockets-hit-israel...
p361
sg11
Vhttps://www.bing.com/cr?IG=2ABD557B539F4B619D93BEA3B3886F4D&CID=19A3A29E5C706B1F3EC3A8C15D996A32&rd=1&h=ieueqSVTmjVkjOW7B9AaRVw7ckFgAe9jALfC0C9nHz8&v=1&r=https%3a%2f%2fwww.breakingisraelnews.com%2f12248%2f60-rockets-hit-israel-terrorists-warned-will-pay-price%2f&p=DevEx,5583.1
p362
sg13
g360
sg14
VWednesday night into Thursday morning, terrorists in the Gaza Strip shot over 60 rockets and mortar shells into southern Israel. The attacks are the highest escalation
p363
sg16
(dp364
g18
g360
sg19
g362
sg20
V2017-03-25T22:25:00
p365
sg22
g361
sg23
g363
sg24
Vhttps://api.cognitive.microsoft.com/api/v5/#WebPages.33
p366
ssg26
g366
sg27
Nsg28
g363
sbag1
(g2
g3
Ntp367
Rp368
(dp369
g7
VGaza air strikes 'kill five' as rockets hit Israel - BBC News
p370
sg9
Vwww.bbc.co.uk/news/world-middle-east-28721914
p371
sg11
Vhttp://www.bing.com/cr?IG=2ABD557B539F4B619D93BEA3B3886F4D&CID=19A3A29E5C706B1F3EC3A8C15D996A32&rd=1&h=3Xc61myc7bNhhp3ls14q0YNj5AuOQXaUYOoUXRFq7Vg&v=1&r=http%3a%2f%2fwww.bbc.co.uk%2fnews%2fworld-middle-east-28721914&p=DevEx,5598.1
p372
sg13
g370
sg14
VMedia caption James Reynolds reports from a hospital in Gaza on the resumption of violence. Five people have been killed in Israeli air strikes on Gaza, health officials there say, as Palestinian militants continue to fire rockets at Israel.
p373
sg16
(dp374
g18
g370
sg19
g372
sg20
V2017-03-27T20:28:00
p375
sg22
g371
sg23
g373
sg24
Vhttps://api.cognitive.microsoft.com/api/v5/#WebPages.34
p376
ssg26
g376
sg27
Nsg28
g373
sbag1
(g2
g3
Ntp377
Rp378
(dp379
g7
VGaza Rockets Hit Major Cities; Reach Haifa District | United with Israel
p380
sg9
Vhttps://unitedwithisrael.org/gaza-rockets-hit-major-cities-reach...
p381
sg11
Vhttps://www.bing.com/cr?IG=2ABD557B539F4B619D93BEA3B3886F4D&CID=19A3A29E5C706B1F3EC3A8C15D996A32&rd=1&h=CJ-zgqSHMacDWJ5XW0nwXhhYZyED63Pc3Ehip5fQtt8&v=1&r=https%3a%2f%2funitedwithisrael.org%2fgaza-rockets-hit-major-cities-reach-haifa-district%2f&p=DevEx,5611.1
p382
sg13
g380
sg14
VSince the launch of Operation Protective Edge on Monday night, 500 rockets hit Israel, including Tel Aviv, Jerusalem and the Haifa District.
p383
sg16
(dp384
g18
g380
sg19
g382
sg20
V2017-03-24T10:41:00
p385
sg22
g381
sg23
g383
sg24
Vhttps://api.cognitive.microsoft.com/api/v5/#WebPages.35
p386
ssg26
g386
sg27
Nsg28
g383
sbag1
(g2
g3
Ntp387
Rp388
(dp389
g7
VGaza Conflict: Rockets 'Hit Israeli Town' - news.sky.com
p390
sg9
Vnews.sky.com/story/gaza-conflict-rockets-hit-israeli-town-10463582
p391
sg11
Vhttp://www.bing.com/cr?IG=2ABD557B539F4B619D93BEA3B3886F4D&CID=19A3A29E5C706B1F3EC3A8C15D996A32&rd=1&h=9ZIRXsD6uLl4QrAKDA_UCGr_juPHxZgEVSvy4w9J4aA&v=1&r=http%3a%2f%2fnews.sky.com%2fstory%2fgaza-conflict-rockets-hit-israeli-town-10463582&p=DevEx,5623.1
p392
sg13
g390
sg14
VThree rockets have hit the southern Israeli town of Ashkelon, according to Sky sources - amid calls for a ceasefire as Israel's bombardment of Gaza continues.
p393
sg16
(dp394
g18
g390
sg19
g392
sg20
V2017-03-18T13:31:00
p395
sg22
g391
sg23
g393
sg24
Vhttps://api.cognitive.microsoft.com/api/v5/#WebPages.36
p396
ssg26
g396
sg27
Nsg28
g393
sbag1
(g2
g3
Ntp397
Rp398
(dp399
g7
VGaza air strikes 'kill five' as rockets hit Israel - alghad.com
p400
sg9
Valghad.com/.../818492-Gaza-air-strikes-kill-five-as-rockets-hit-Israel
p401
sg11
Vhttp://www.bing.com/cr?IG=2ABD557B539F4B619D93BEA3B3886F4D&CID=19A3A29E5C706B1F3EC3A8C15D996A32&rd=1&h=bjZNLsP98IqoA9MWQD5I14EZZd0ChgBsfjTjwJ9gVJY&v=1&r=http%3a%2f%2falghad.com%2farticles%2f818492-Gaza-air-strikes-kill-five-as-rockets-hit-Israel&p=DevEx,5635.1
p402
sg13
g400
sg14
VFive people have been killed in Israeli air strikes on Gaza, health officials there say, as Palestinian militants continue to fire rockets at Israel.
p403
sg16
(dp404
g18
g400
sg19
g402
sg20
V2017-03-14T10:47:00
p405
sg22
g401
sg23
g403
sg24
Vhttps://api.cognitive.microsoft.com/api/v5/#WebPages.37
p406
ssg26
g406
sg27
Nsg28
g403
sbag1
(g2
g3
Ntp407
Rp408
(dp409
g7
VGaza rockets hit Israel as truce deadline looms | Astro Awani
p410
sg9
Venglish.astroawani.com/world-news/gaza-rockets-hit-israel-truce...
p411
sg11
Vhttp://www.bing.com/cr?IG=2ABD557B539F4B619D93BEA3B3886F4D&CID=19A3A29E5C706B1F3EC3A8C15D996A32&rd=1&h=qswo4nvTeQOK5LDxfhXW5O-oZU0yO5XvuZ2em-4ERDc&v=1&r=http%3a%2f%2fenglish.astroawani.com%2fworld-news%2fgaza-rockets-hit-israel-truce-deadline-looms-41491&p=DevEx,5647.1
p412
sg13
g410
sg14
VGAZA CITY,: Two rockets fired by Gaza militants slammed into southern Israel before dawn on Friday, as a 72-hour truce appeared to be reaching an end.
p413
sg16
(dp414
g18
g410
sg19
g412
sg20
V2017-03-18T04:33:00
p415
sg22
g411
sg23
g413
sg24
Vhttps://api.cognitive.microsoft.com/api/v5/#WebPages.38
p416
ssg26
g416
sg27
Nsg28
g413
sbag1
(g2
g3
Ntp417
Rp418
(dp419
g7
VRockets From Lebanon Hit Israel; Gaza Battle Rages (In-Depth)
p420
sg9
Vhttps://www.worthynews.com/3689-rockets-from-lebanon-hit-israel...
p421
sg11
Vhttps://www.bing.com/cr?IG=2ABD557B539F4B619D93BEA3B3886F4D&CID=19A3A29E5C706B1F3EC3A8C15D996A32&rd=1&h=srmYwa-zFDI-nuvQz7HhiSUdcByPIg2Z0HuMlWIa438&v=1&r=https%3a%2f%2fwww.worthynews.com%2f3689-rockets-from-lebanon-hit-israel-gaza-battle-rages-in-depth&p=DevEx,5658.1
p422
sg13
g420
sg14
VSuspected militants fired several rockets into Israel from neighboring Lebanon Wednesday, January 14, the second such attack in a week, residents and Israeli officials said.
p423
sg16
(dp424
g18
g420
sg19
g422
sg20
V2017-03-18T07:47:00
p425
sg22
g421
sg23
g423
sg24
Vhttps://api.cognitive.microsoft.com/api/v5/#WebPages.39
p426
ssg26
g426
sg27
Nsg28
g423
sbag1
(g2
g3
Ntp427
Rp428
(dp429
g7
VTerrorist Rockets Hit Israel - Washington Free Beacon
p430
sg9
Vfreebeacon.com/national-security/terrorist-rockets-hit-israel
p431
sg11
Vhttp://www.bing.com/cr?IG=2ABD557B539F4B619D93BEA3B3886F4D&CID=19A3A29E5C706B1F3EC3A8C15D996A32&rd=1&h=FATiCh35-jhgW8xVy5Ck51QncAyeCKgifzf5wzWJulQ&v=1&r=http%3a%2f%2ffreebeacon.com%2fnational-security%2fterrorist-rockets-hit-israel%2f&p=DevEx,5672.1
p432
sg13
g430
sg14
VA terrorist rocket fired from the Gaza Strip landed in Southern Israel near the heavily populated town of Ashkelon, the Israeli Army confirmed Tuesday afternoon. It was not clear if Hamas or another splinter faction was responsible for the attack, which comes following a relatively long period of
p433
sg16
(dp434
g18
g430
sg19
g432
sg20
V2017-03-23T23:56:00
p435
sg22
g431
sg23
g433
sg24
Vhttps://api.cognitive.microsoft.com/api/v5/#WebPages.40
p436
ssg26
g436
sg27
Nsg28
g433
sbag1
(g2
g3
Ntp437
Rp438
(dp439
g7
V2 Gaza rockets hit near Israel nuclear reactor: army | News , Middle ...
p440
sg9
Vwww.dailystar.com.lb/...09/263293-2-gaza-rockets-hit-near-israels...
p441
sg11
Vhttp://www.bing.com/cr?IG=2ABD557B539F4B619D93BEA3B3886F4D&CID=19A3A29E5C706B1F3EC3A8C15D996A32&rd=1&h=JxCmuCdx0FBTSwX4--XzTt5mMs0HumGxjCMCLBkq388&v=1&r=http%3a%2f%2fwww.dailystar.com.lb%2fNews%2fMiddle-East%2f2014%2fJul-09%2f263293-2-gaza-rockets-hit-near-israels-dimona-nuclear-reactor-army.ashx&p=DevEx,5685.1
p442
sg13
g440
sg14
VTwo rockets fired by Gaza militants Wednesday hit near the southern town of Dimona where Israel has a nuclear reactor, the military said on Twitter.
p443
sg16
(dp444
g18
g440
sg19
g442
sg20
V2017-02-17T12:01:00
p445
sg22
g441
sg23
g443
sg24
Vhttps://api.cognitive.microsoft.com/api/v5/#WebPages.41
p446
ssg26
g446
sg27
Nsg28
g443
sbag1
(g2
g3
Ntp447
Rp448
(dp449
g7
VGaza rockets hit Israel during Obama visit - Israel Today | Israel News
p450
sg9
Vwww.israeltoday.co.il/NewsItem/tabid/178/nid/23746/Default.aspx?hp=...
p451
sg11
Vhttp://www.bing.com/cr?IG=2ABD557B539F4B619D93BEA3B3886F4D&CID=19A3A29E5C706B1F3EC3A8C15D996A32&rd=1&h=YQKDbld3Fhe1ClDSFeUrXIDAOSy_WNJpCRmK0aHMrfU&v=1&r=http%3a%2f%2fwww.israeltoday.co.il%2fNewsItem%2ftabid%2f178%2fnid%2f23746%2fDefault.aspx%3fhp%3dreadmore&p=DevEx,5696.1
p452
sg13
g450
sg14
VFour rockets fired from Gaza at southern Israel on Thursday morning, start of Obama's second day in the country; serious damage to one house in Sderot, but no injuries
p453
sg16
(dp454
g18
g450
sg19
g452
sg20
V2017-03-04T16:22:00
p455
sg22
g451
sg23
g453
sg24
Vhttps://api.cognitive.microsoft.com/api/v5/#WebPages.42
p456
ssg26
g456
sg27
Nsg28
g453
sbag1
(g2
g3
Ntp457
Rp458
(dp459
g7
V2 Gaza rockets hit near Israel nuclear reactor - now.mmedia.me
p460
sg9
Vhttps://now.mmedia.me/lb/en/mena/555096-2-gaza-rockets-hit-near...
p461
sg11
Vhttps://www.bing.com/cr?IG=2ABD557B539F4B619D93BEA3B3886F4D&CID=19A3A29E5C706B1F3EC3A8C15D996A32&rd=1&h=bTxFhWwxEAVrntnMvzB4LqSSFSVQoA9sV1CSkVn81tI&v=1&r=https%3a%2f%2fnow.mmedia.me%2flb%2fen%2fmena%2f555096-2-gaza-rockets-hit-near-israel-nuclear-reactor&p=DevEx,5708.1
p462
sg13
g460
sg14
VTwo rockets fired by Gaza militants Wednesday hit near the southern town of Dimona where Israel has a nuclear reactor, the military said on Twitter.
p463
sg16
(dp464
g18
g460
sg19
g462
sg20
V2017-03-18T23:42:00
p465
sg22
g461
sg23
g463
sg24
Vhttps://api.cognitive.microsoft.com/api/v5/#WebPages.43
p466
ssg26
g466
sg27
Nsg28
g463
sbag1
(g2
g3
Ntp467
Rp468
(dp469
g7
V7 Gaza rockets land in Israel; light damage caused - Defense ...
p470
sg9
Vwww.jpost.com/Defense/3-Gaza-rockets-hit-open-areas-in-Negev-350000
p471
sg11
Vhttp://www.bing.com/cr?IG=2ABD557B539F4B619D93BEA3B3886F4D&CID=19A3A29E5C706B1F3EC3A8C15D996A32&rd=1&h=_IvOkczPOfbwL6KHOGViJOSkOi6v0xYAZyS32uxggR8&v=1&r=http%3a%2f%2fwww.jpost.com%2fDefense%2f3-Gaza-rockets-hit-open-areas-in-Negev-350000&p=DevEx,5722.1
p472
sg13
g470
sg14
VIsrael Air Force strikes targets in Gaza after rocket fire; Gantz: IDF training for new Gaza, Lebanon wars; Another two rockets were launched and caused light damage in Sderot.
p473
sg16
(dp474
g18
g470
sg19
g472
sg20
V2017-03-28T03:19:00
p475
sg22
g471
sg23
g473
sg24
Vhttps://api.cognitive.microsoft.com/api/v5/#WebPages.44
p476
ssg26
g476
sg27
Nsg28
g473
sbag1
(g2
g3
Ntp477
Rp478
(dp479
g7
V120 Gaza rockets hit southern Israel - Israel Today | Israel News
p480
sg9
Vwww.israeltoday.co.il/tabid/178/nid/22741/Default.aspx
p481
sg11
Vhttp://www.bing.com/cr?IG=2ABD557B539F4B619D93BEA3B3886F4D&CID=19A3A29E5C706B1F3EC3A8C15D996A32&rd=1&h=ggVhhXOPu6QwxE_ajff2YElt-G6MXVJw3UH60MpdfnQ&v=1&r=http%3a%2f%2fwww.israeltoday.co.il%2ftabid%2f178%2fnid%2f22741%2fDefault.aspx&p=DevEx,5734.1
p482
sg13
g480
sg14
VPalestinian terrorists operating out of the Gaza Strip fired no fewer than 120 rockets and mortar shells at communities in southern Israel over the weekend, forcing the regions tens of thousands of residents to spend the Sabbath hiding in bomb shelters.
p483
sg16
(dp484
g18
g480
sg19
g482
sg20
V2017-03-21T18:09:00
p485
sg22
g481
sg23
g483
sg24
Vhttps://api.cognitive.microsoft.com/api/v5/#WebPages.45
p486
ssg26
g486
sg27
Nsg28
g483
sbag1
(g2
g3
Ntp487
Rp488
(dp489
g7
VGaza truce recedes as rockets hit Israel | Toronto Star
p490
sg9
Vhttps://www.thestar.com/news/world/2008/12/21/gaza_truce_recedes...
p491
sg11
Vhttps://www.bing.com/cr?IG=2ABD557B539F4B619D93BEA3B3886F4D&CID=19A3A29E5C706B1F3EC3A8C15D996A32&rd=1&h=UlIPZL6OiE2mihiW1tOhVvHEffAVI1ZkGNXgDBAKwks&v=1&r=https%3a%2f%2fwww.thestar.com%2fnews%2fworld%2f2008%2f12%2f21%2fgaza_truce_recedes_as_rockets_hit_israel.html&p=DevEx,5750.1
p492
sg13
g490
sg14
VBarrages of rockets fired from Gaza hit Israeli towns Sunday and the Israeli air force responded with a missile strike as violence surged following the official expiration of a shaky truce with Hamas.
p493
sg16
(dp494
g18
g490
sg19
g492
sg20
V2017-03-08T02:25:00
p495
sg22
g491
sg23
g493
sg24
Vhttps://api.cognitive.microsoft.com/api/v5/#WebPages.46
p496
ssg26
g496
sg27
Nsg28
g493
sbag1
(g2
g3
Ntp497
Rp498
(dp499
g7
VIsrael: Rockets fired from Gaza violate cease-fire - CNN.com
p500
sg9
Vwww.cnn.com/2014/08/07/world/meast/mideast-crisis/index.html
p501
sg11
Vhttp://www.bing.com/cr?IG=2ABD557B539F4B619D93BEA3B3886F4D&CID=19A3A29E5C706B1F3EC3A8C15D996A32&rd=1&h=we0jfNuL90VME3I5gljoBnvz48rZtdgQzpjTE4O4AzQ&v=1&r=http%3a%2f%2fwww.cnn.com%2f2014%2f08%2f07%2fworld%2fmeast%2fmideast-crisis%2findex.html&p=DevEx,5765.1
p502
sg13
g500
sg14
VRockets from Gaza hit Israel early Friday morning, breaching a cease-fire that had held for more than two days, the Israeli military said.
p503
sg16
(dp504
g18
g500
sg19
g502
sg20
V2017-04-01T09:40:00
p505
sg22
g501
sg23
g503
sg24
Vhttps://api.cognitive.microsoft.com/api/v5/#WebPages.47
p506
ssg26
g506
sg27
Nsg28
g503
sba.