(lp0
ccopy_reg
_reconstructor
p1
(cpy_ms_cognitive.py_ms_cognitive_search.py_ms_cognitive_web_search
WebResult
p2
c__builtin__
object
p3
Ntp4
Rp5
(dp6
S'name'
p7
VNational Museum of American History - Official Site
p8
sS'display_url'
p9
Vhttps://americanhistory.si.edu
p10
sS'url'
p11
Vhttps://www.bing.com/cr?IG=4BBE7976657C4D29A0DA6CA49DA41215&CID=299F2D8BF3CA6A5902BA27D4F2236BFD&rd=1&h=dbex81j59mgFssQCGLGE6PcvQWQYThVU4vju-_7o76o&v=1&r=https%3a%2f%2famericanhistory.si.edu%2f&p=DevEx,5112.1
p12
sS'title'
p13
g8
sS'snippet'
p14
VExhibitions on a range of topics offer firsthand experiences with treasures of American history.
p15
sS'json'
p16
(dp17
Vname
p18
g8
sVurl
p19
g12
sVdeepLinks
p20
(lp21
(dp22
g19
Vhttps://www.bing.com/cr?IG=4BBE7976657C4D29A0DA6CA49DA41215&CID=299F2D8BF3CA6A5902BA27D4F2236BFD&rd=1&h=3i7tTWmXhm7pXAuFbd_iYsbAWHeRk0vy7oDE1wS3BKE&v=1&r=https%3a%2f%2fwww.si.edu%2fMuseums%2famerican-history-museum&p=DevEx,5103.1
p23
sVsnippet
p24
VAbout. Devoted to the scientific, cultural, social, technological, and political development of the United States, the museum traces the American experience from colonial times to the present.
p25
sg18
VAmerican History Museum
p26
sa(dp27
g19
Vhttp://www.bing.com/cr?IG=4BBE7976657C4D29A0DA6CA49DA41215&CID=299F2D8BF3CA6A5902BA27D4F2236BFD&rd=1&h=dMEJEpUvFjJTB2HxE4PSULWeJ7bnj4dzG7GjJn6mzHg&v=1&r=http%3a%2f%2famericanhistory.si.edu%2fcollections%2f&p=DevEx,5104.1
p28
sg24
VSearch for artifacts and archival records in the collections of the National Museum of American History.
p29
sg18
VCollections
p30
sa(dp31
g19
Vhttp://www.bing.com/cr?IG=4BBE7976657C4D29A0DA6CA49DA41215&CID=299F2D8BF3CA6A5902BA27D4F2236BFD&rd=1&h=1h6FC_1V3BHs1JtE505_P6B89-yeZwwfNzMIRcFdaOc&v=1&r=http%3a%2f%2fsiarchives.si.edu%2fhistory%2fnational-museum-american-history&p=DevEx,5105.1
p32
sg24
VThe 19th Century Collection. The history of the National Museum of American History's collections dates back to the very beginning of the Smithsonian Institution, when Secretary Joseph Henry amassed a collection of scientific apparatus for historical and demonstration purposes.
p33
sg18
VNational Museum of American History
p34
sasVdateLastCrawled
p35
V2017-04-03T04:23:00
p36
sVdisplayUrl
p37
g10
sg24
g15
sVid
p38
Vhttps://api.cognitive.microsoft.com/api/v5/#WebPages.0
p39
ssS'id'
p40
g39
sS'deep_links'
p41
g21
sS'description'
p42
g15
sbag1
(g2
g3
Ntp43
Rp44
(dp45
g7
VNational Museum of American History - Wikipedia
p46
sg9
Vhttps://en.wikipedia.org/wiki/National_Museum_of_American_History
p47
sg11
Vhttps://www.bing.com/cr?IG=4BBE7976657C4D29A0DA6CA49DA41215&CID=299F2D8BF3CA6A5902BA27D4F2236BFD&rd=1&h=xFSHBsyi9ZXu-B0m4ag0VLT5jB4qqkVln-KiESiTEpw&v=1&r=https%3a%2f%2fen.wikipedia.org%2fwiki%2fNational_Museum_of_American_History&p=DevEx,5134.1
p48
sg13
g46
sg14
VThe National Museum of American History: Kenneth E. Behring Center collects, preserves, and displays the heritage of the United States in the areas of social, political, cultural, scientific, and military history.
p49
sg16
(dp50
VsnippetAttribution
p51
(dp52
VlicenseNotice
p53
VText under CC-BY-SA license
p54
sVlicense
p55
(dp56
g19
Vhttp://www.bing.com/cr?IG=4BBE7976657C4D29A0DA6CA49DA41215&CID=299F2D8BF3CA6A5902BA27D4F2236BFD&rd=1&h=tJYnHtBaEymlKo_fRl0wo_ZHu4dAaCwVMH_BvcixOgM&v=1&r=http%3a%2f%2fcreativecommons.org%2flicenses%2fby-sa%2f3.0%2f&p=DevEx,6071.1
p57
sg18
VCC-BY-SA
p58
sssVabout
p59
(lp60
(dp61
g18
VNational Museum of American History
p62
sasg18
g46
sg19
g48
sg35
V2017-04-03T21:51:00
p63
sg37
g47
sg24
g49
sg38
Vhttps://api.cognitive.microsoft.com/api/v5/#WebPages.1
p64
ssg40
g64
sg41
Nsg42
g49
sbag1
(g2
g3
Ntp65
Rp66
(dp67
g7
VNational Museum of American History - Washington.org
p68
sg9
Vhttps://washington.org/DC-guide-to/smithsonian-national-museum...
p69
sg11
Vhttps://www.bing.com/cr?IG=4BBE7976657C4D29A0DA6CA49DA41215&CID=299F2D8BF3CA6A5902BA27D4F2236BFD&rd=1&h=GVvwndGASdyfCl2RZh1s-hgrkBInuWe2zUB_cRxqw2E&v=1&r=https%3a%2f%2fwashington.org%2fDC-guide-to%2fsmithsonian-national-museum-american-history&p=DevEx,5148.1
p70
sg13
g68
sg14
VWhat and where is the National Museum of American History?
p71
sg16
(dp72
g18
g68
sg19
g70
sg35
V2017-04-02T06:11:00
p73
sg37
g69
sg24
g71
sg38
Vhttps://api.cognitive.microsoft.com/api/v5/#WebPages.2
p74
ssg40
g74
sg41
Nsg42
g71
sbag1
(g2
g3
Ntp75
Rp76
(dp77
g7
VNational Museum of American History - TripAdvisor
p78
sg9
Vhttps://www.tripadvisor.com/Attraction_Review-g28970-d103446...
p79
sg11
Vhttps://www.bing.com/cr?IG=4BBE7976657C4D29A0DA6CA49DA41215&CID=299F2D8BF3CA6A5902BA27D4F2236BFD&rd=1&h=mHUlp0lskyh2G3cO2sb0aQ5_8Wa6C3lzxmVEwj7ql7g&v=1&r=https%3a%2f%2fwww.tripadvisor.com%2fAttraction_Review-g28970-d103446-Reviews-National_Museum_of_American_History-Washington_DC_District_of_Columbia.html&p=DevEx,5166.1
p80
sg13
g78
sg14
VBook your tickets online for National Museum of American History, Washington DC: See 3,578 reviews, articles, and 1,797 photos of National Museum of American History, ranked No.32 on TripAdvisor among 418 attractions in Washington DC.
p81
sg16
(dp82
g59
(lp83
(dp84
g18
VNational Museum of American History
p85
sasg18
g78
sg19
g80
sg35
V2017-03-29T12:39:00
p86
sg37
g79
sg24
g81
sg38
Vhttps://api.cognitive.microsoft.com/api/v5/#WebPages.3
p87
ssg40
g87
sg41
Nsg42
g81
sbag1
(g2
g3
Ntp88
Rp89
(dp90
g7
VAmerican Museum of Natural History - Official Site
p91
sg9
Vwww.amnh.org
p92
sg11
Vhttp://www.bing.com/cr?IG=4BBE7976657C4D29A0DA6CA49DA41215&CID=299F2D8BF3CA6A5902BA27D4F2236BFD&rd=1&h=mSnHTTHvd55lOCWb63cWZBYCaS4BcZ59txJP5P3tWYY&v=1&r=http%3a%2f%2fwww.amnh.org%2f&p=DevEx,5180.1
p93
sg13
g91
sg14
VExplore the museum. Find out about our exhibitions, events, research, and collections. START EXPLORING . Science topics. On climate change, cosmology, Darwin, dinosaurs, and more. VIEW TOPICS . Become a Member JOIN THE MUSEUM . Buy Tickets PURCHASE TICKETS NOW . Shop for unique gifts AMNH ONLINE STORE . The Gilder Center LEARN MORE . Page footer. Follow @amnh; American Museum of Natural History. Central Park West at 79th Street New York, NY 10024-5192 Phone: 212-769-5100. Open daily from 10 ...
p94
sg16
(dp95
g59
(lp96
(dp97
g18
VAmerican Museum of Natural History
p98
sa(dp99
g18
VRose Center for Earth and Space
p100
sasg18
g91
sg19
g93
sg35
V2017-03-31T03:56:00
p101
sg37
g92
sg24
g94
sg38
Vhttps://api.cognitive.microsoft.com/api/v5/#WebPages.4
p102
ssg40
g102
sg41
Nsg42
g94
sbag1
(g2
g3
Ntp103
Rp104
(dp105
g7
VNational Museum of American History - Home | Facebook
p106
sg9
Vhttps://www.facebook.com/americanhistory
p107
sg11
Vhttps://www.bing.com/cr?IG=4BBE7976657C4D29A0DA6CA49DA41215&CID=299F2D8BF3CA6A5902BA27D4F2236BFD&rd=1&h=s8ShCERKfbJYvAUxSMx23guZ5QvUjn3uSeZagezKiD4&v=1&r=https%3a%2f%2fwww.facebook.com%2famericanhistory&p=DevEx,5201.1
p108
sg13
g106
sg14
VNational Museum of American History, Washington, DC. 219,918 likes  6,922 talking about this  370,168 were here. Home of the Star-Spangled Banner, the...
p109
sg16
(dp110
g59
(lp111
(dp112
g18
VNational Museum of American History
p113
sasg18
g106
sg19
g108
sg35
V2017-04-04T01:37:00
p114
sg37
g107
sg24
g109
sg38
Vhttps://api.cognitive.microsoft.com/api/v5/#WebPages.5
p115
ssg40
g115
sg41
Nsg42
g109
sbag1
(g2
g3
Ntp116
Rp117
(dp118
g7
VNational Museum of American History - The New York Times
p119
sg9
Vhttps://www.nytimes.com/.../national-museum-of-american-history
p120
sg11
Vhttps://www.bing.com/cr?IG=4BBE7976657C4D29A0DA6CA49DA41215&CID=299F2D8BF3CA6A5902BA27D4F2236BFD&rd=1&h=2xft-IichqJ3mB1XbMF1vzgxeeR-9yf0suHgFWuMWGc&v=1&r=https%3a%2f%2fwww.nytimes.com%2ftopic%2forganization%2fnational-museum-of-american-history&p=DevEx,5225.1
p121
sg13
g119
sg14
VNews about National Museum of American History, including commentary and archival articles published in The New York Times.
p122
sg16
(dp123
g18
g119
sg19
g121
sg35
V2017-03-19T07:12:00
p124
sg37
g120
sg24
g122
sg38
Vhttps://api.cognitive.microsoft.com/api/v5/#WebPages.6
p125
ssg40
g125
sg41
Nsg42
g122
sbag1
(g2
g3
Ntp126
Rp127
(dp128
g7
VSmithsonian National Museum of American History
p129
sg9
Vdc.about.com/od/museums/p/AmericanHistory.htm
p130
sg11
Vhttp://www.bing.com/cr?IG=4BBE7976657C4D29A0DA6CA49DA41215&CID=299F2D8BF3CA6A5902BA27D4F2236BFD&rd=1&h=b1djfSsfDF7RFtF8Xa8EVnpLhOQiaqUKfs36V8dTSu0&v=1&r=http%3a%2f%2fdc.about.com%2fod%2fmuseums%2fp%2fAmericanHistory.htm&p=DevEx,5268.1
p131
sg13
g129
sg14
VSmithsonian National Museum of American History, Smithsonian Museum in Washington, DC dedicated to preserving America's history
p132
sg16
(dp133
g59
(lp134
(dp135
g18
VNational Museum of American History
p136
sasg18
g129
sg19
g131
sg35
V2017-04-03T08:01:00
p137
sg37
g130
sg24
g132
sg38
Vhttps://api.cognitive.microsoft.com/api/v5/#WebPages.7
p138
ssg40
g138
sg41
Nsg42
g132
sbag1
(g2
g3
Ntp139
Rp140
(dp141
g7
VNational Museum of American History | Facebook
p142
sg9
Vhttps://www.facebook.com/americanhistory/?ref=py_c
p143
sg11
Vhttps://www.bing.com/cr?IG=4BBE7976657C4D29A0DA6CA49DA41215&CID=299F2D8BF3CA6A5902BA27D4F2236BFD&rd=1&h=ziqa0BQenTd1eFPLmlrQhgv2JjFH3Maq0End9NLo37c&v=1&r=https%3a%2f%2fwww.facebook.com%2famericanhistory%2f%3fref%3dpy_c&p=DevEx,5285.1
p144
sg13
g142
sg14
VNational Museum of American History, Washington, DC. 218,420 likes  6,773 talking about this  363,143 were here. Home of the Star-Spangled Banner, the...
p145
sg16
(dp146
g18
g142
sg19
g144
sg35
V2017-03-10T12:29:00
p147
sg37
g143
sg24
g145
sg38
Vhttps://api.cognitive.microsoft.com/api/v5/#WebPages.8
p148
ssg40
g148
sg41
Nsg42
g145
sbag1
(g2
g3
Ntp149
Rp150
(dp151
g7
VNational Museum of Natural History - Smithsonian Institution National ...
p152
sg9
Vhttps://naturalhistory.si.edu
p153
sg11
Vhttps://www.bing.com/cr?IG=4BBE7976657C4D29A0DA6CA49DA41215&CID=299F2D8BF3CA6A5902BA27D4F2236BFD&rd=1&h=20o-MsQYx7-9bFU2vB83m9QcOJl4WWAl-kl0YflMRfs&v=1&r=https%3a%2f%2fnaturalhistory.si.edu%2f&p=DevEx,5298.1
p154
sg13
g152
sg14
VHighlights Objects of Wonder: From the Collections of the National Museum of Natural History Museum collections reflect our amazing world, inspire wonder, and form the foundation for scientific discovery.
p155
sg16
(dp156
g59
(lp157
(dp158
g18
VNational Museum of Natural History
p159
sasg18
g152
sg19
g154
sg35
V2017-04-02T14:07:00
p160
sg37
g153
sg24
g155
sg38
Vhttps://api.cognitive.microsoft.com/api/v5/#WebPages.9
p161
ssg40
g161
sg41
Nsg42
g155
sbag1
(g2
g3
Ntp162
Rp163
(dp164
g7
VNational Museum of American History Smithsonian Institution | Flickr
p165
sg9
Vhttps://www.flickr.com/photos/nationalmuseumofamericanhistory
p166
sg11
Vhttps://www.bing.com/cr?IG=4BBE7976657C4D29A0DA6CA49DA41215&CID=299F2D8BF3CA6A5902BA27D4F2236BFD&rd=1&h=O2msE_9Hx9rgvMURosvkSxMZMY2IT2uR_GPSXyixhhA&v=1&r=https%3a%2f%2fwww.flickr.com%2fphotos%2fnationalmuseumofamericanhistory%2f&p=DevEx,5310.1
p167
sg13
g165
sg14
VExplore National Museum of American History Smithsonian Institution's 8,247 photos on Flickr!
p168
sg16
(dp169
g59
(lp170
(dp171
g18
VNational Museum of American History
p172
sasg18
g165
sg19
g167
sg35
V2017-02-24T23:13:00
p173
sg37
g166
sg24
g168
sg38
Vhttps://api.cognitive.microsoft.com/api/v5/#WebPages.10
p174
ssg40
g174
sg41
Nsg42
g168
sbag1
(g2
g3
Ntp175
Rp176
(dp177
g7
VNational Museum of American History | Washington.org
p178
sg9
Vhttps://washington.org/.../national-museum-american-history
p179
sg11
Vhttps://www.bing.com/cr?IG=4BBE7976657C4D29A0DA6CA49DA41215&CID=299F2D8BF3CA6A5902BA27D4F2236BFD&rd=1&h=C5_siD9MTk8d9Cq2fv5Fk4_y5ez5AQRiE2AXqrQDBCw&v=1&r=https%3a%2f%2fwashington.org%2ffind-dc-listings%2fnational-museum-american-history&p=DevEx,5323.1
p180
sg13
g178
sg14
VThe National Museum of American History showcases national treasures, from the Star-Spangled Banner to the Ruby Slippers. Daily programs, hands-on activities. Free.
p181
sg16
(dp182
g18
g178
sg19
g180
sg35
V2017-04-02T05:15:00
p183
sg37
g179
sg24
g181
sg38
Vhttps://api.cognitive.microsoft.com/api/v5/#WebPages.11
p184
ssg40
g184
sg41
Nsg42
g181
sbag1
(g2
g3
Ntp185
Rp186
(dp187
g7
VThrough the African American Lens | National Museum of African American ...
p188
sg9
Vhttps://nmaahc.si.edu/explore/exhibitions/through-african-american...
p189
sg11
Vhttps://www.bing.com/cr?IG=4BBE7976657C4D29A0DA6CA49DA41215&CID=299F2D8BF3CA6A5902BA27D4F2236BFD&rd=1&h=dX1WGq5GUaccX9BFH7ufe0gIbBKdsL_cQi67hOVwEEc&v=1&r=https%3a%2f%2fnmaahc.si.edu%2fexplore%2fexhibitions%2fthrough-african-american-lens&p=DevEx,5336.1
p190
sg13
g188
sg14
VThrough the African American Lens. offers a preview of the new museum\u2019s permanent collection. The exhibition showcases stories of trailblazers, innovators, visionaries and history makers who helped to shape this great nation.
p191
sg16
(dp192
g18
g188
sg19
g190
sg35
V2017-03-31T20:57:00
p193
sg37
g189
sg24
g191
sg38
Vhttps://api.cognitive.microsoft.com/api/v5/#WebPages.12
p194
ssg40
g194
sg41
Nsg42
g191
sbag1
(g2
g3
Ntp195
Rp196
(dp197
g7
VSmithsonian Institution - Official Site
p198
sg9
Vwww.si.edu
p199
sg11
Vhttp://www.bing.com/cr?IG=4BBE7976657C4D29A0DA6CA49DA41215&CID=299F2D8BF3CA6A5902BA27D4F2236BFD&rd=1&h=MyNf4XZm9NNadk6zq9RcxO4PGlXMfcszu_IY5uMMjQs&v=1&r=http%3a%2f%2fwww.si.edu%2f&p=DevEx,5349.1
p200
sg13
g198
sg14
VSmithsonian Institution. Visit. Museums and Zoo; Hours; Tips for Visiting; Group Visits. Group Sales. Air and Space Museum; Air and Space Museum Udvar-Hazy Center; American History Museum; American Indian Museum; Natural History Museum; ... National Museum of African American History and Culture . A People\u2019s Journey: A Nation\u2019s Story. Smithsonian welcomes our newest museum. Welcome.
p201
sg16
(dp202
g59
(lp203
(dp204
g18
VSmithsonian Institution
p205
sa(dp206
g18
VNational Postal Museum
p207
sa(dp208
g18
VAnacostia Community Museum
p209
sa(dp210
g18
VS. Dillon Ripley Center
p211
sasg18
g198
sg19
g200
sg35
V2017-04-02T12:59:00
p212
sg37
g199
sg24
g201
sg38
Vhttps://api.cognitive.microsoft.com/api/v5/#WebPages.13
p213
ssg40
g213
sg41
Nsg42
g201
sbag1
(g2
g3
Ntp214
Rp215
(dp216
g7
VNational Museum of American History - YouTube
p217
sg9
Vwww.youtube.com/user/SmithsonianAmHistory
p218
sg11
Vhttp://www.bing.com/cr?IG=4BBE7976657C4D29A0DA6CA49DA41215&CID=299F2D8BF3CA6A5902BA27D4F2236BFD&rd=1&h=YCmNbzp4FsaOzOI5zUFMJ4QY4qUyxQJ1zKnu3AVoF8w&v=1&r=http%3a%2f%2fwww.youtube.com%2fuser%2fSmithsonianAmHistory&p=DevEx,5364.1
p219
sg13
g217
sg14
VThrough incomparable collections, rigorous research, and dynamic public outreach, the Smithsonian's National Museum of American History explores the infinite...
p220
sg16
(dp221
g59
(lp222
(dp223
g18
VNational Museum of American History
p224
sasg18
g217
sg19
g219
sg35
V2017-04-02T00:37:00
p225
sg37
g218
sg24
g220
sg38
Vhttps://api.cognitive.microsoft.com/api/v5/#WebPages.14
p226
ssg40
g226
sg41
Nsg42
g220
sbag1
(g2
g3
Ntp227
Rp228
(dp229
g7
VNational Museum of American History
p230
sg9
Vamhistory.si.edu/docs/NMAH_StrategicPlan_2013.pdf
p231
sg11
Vhttp://www.bing.com/cr?IG=4BBE7976657C4D29A0DA6CA49DA41215&CID=299F2D8BF3CA6A5902BA27D4F2236BFD&rd=1&h=CHArgA2N1nSgwds_X1ieC-beBxhDwXlsJ_vjV5KokQg&v=1&r=http%3a%2f%2famhistory.si.edu%2fdocs%2fNMAH_StrategicPlan_2013.pdf&p=DevEx,5376.1
p232
sg13
g230
sg14
VOur Values Our Strengths World-class Collections Dedicated Staff American History Expertise Location on the National Mall in Washington, DC
p233
sg16
(dp234
g18
g230
sg19
g232
sg35
V2017-03-31T18:28:00
p235
sg37
g231
sg24
g233
sg38
Vhttps://api.cognitive.microsoft.com/api/v5/#WebPages.15
p236
ssg40
g236
sg41
Nsg42
g233
sbag1
(g2
g3
Ntp237
Rp238
(dp239
g7
VNational Museum of African American History and Culture - Official Site
p240
sg9
Vhttps://nmaahc.si.edu
p241
sg11
Vhttps://www.bing.com/cr?IG=4BBE7976657C4D29A0DA6CA49DA41215&CID=299F2D8BF3CA6A5902BA27D4F2236BFD&rd=1&h=i9eJvUyDxQnKE55VoiztdrTohBS_LpTEwMESwAmdopY&v=1&r=https%3a%2f%2fnmaahc.si.edu%2f&p=DevEx,5389.1
p242
sg13
g240
sg14
VA museum that seeks to understand American history through the lens of the African American experience.
p243
sg16
(dp244
g59
(lp245
(dp246
g18
VNational Museum of African American History and Culture
p247
sasg18
g240
sg19
g242
sg35
V2017-04-04T04:57:00
p248
sg37
g241
sg24
g243
sg38
Vhttps://api.cognitive.microsoft.com/api/v5/#WebPages.16
p249
ssg40
g249
sg41
Nsg42
g243
sbag1
(g2
g3
Ntp250
Rp251
(dp252
g7
VNational Museum of African American History and Culture
p253
sg9
Vhttps://en.wikipedia.org/wiki/National_Museum_of_African_American...
p254
sg11
Vhttps://www.bing.com/cr?IG=4BBE7976657C4D29A0DA6CA49DA41215&CID=299F2D8BF3CA6A5902BA27D4F2236BFD&rd=1&h=oXEXjOsgmazZbkRJQuQzSKH0lqDdX7c9Lt23M5nSf3I&v=1&r=https%3a%2f%2fen.wikipedia.org%2fwiki%2fNational_Museum_of_African_American_History_and_Culture&p=DevEx,5409.1
p255
sg13
g253
sg14
VThe National Museum of African American History and Culture (NMAAHC) is a Smithsonian Institution museum established in December 2003. The museum's building, designed by David Adjaye, is on the National Mall in Washington, D.C..
p256
sg16
(dp257
g51
(dp258
g53
VText under CC-BY-SA license
p259
sg55
(dp260
g19
Vhttp://www.bing.com/cr?IG=4BBE7976657C4D29A0DA6CA49DA41215&CID=299F2D8BF3CA6A5902BA27D4F2236BFD&rd=1&h=tJYnHtBaEymlKo_fRl0wo_ZHu4dAaCwVMH_BvcixOgM&v=1&r=http%3a%2f%2fcreativecommons.org%2flicenses%2fby-sa%2f3.0%2f&p=DevEx,6072.1
p261
sg18
VCC-BY-SA
p262
sssg59
(lp263
(dp264
g18
VNational Museum of African American History and Culture
p265
sasg18
g253
sg19
g255
sg35
V2017-04-03T22:36:00
p266
sg37
g254
sg24
g256
sg38
Vhttps://api.cognitive.microsoft.com/api/v5/#WebPages.17
p267
ssg40
g267
sg41
Nsg42
g256
sbag1
(g2
g3
Ntp268
Rp269
(dp270
g7
VNational Museum of American History | Smithsonian Campaign
p271
sg9
Vhttps://smithsoniancampaign.org/unit/national-museum-american-history
p272
sg11
Vhttps://www.bing.com/cr?IG=4BBE7976657C4D29A0DA6CA49DA41215&CID=299F2D8BF3CA6A5902BA27D4F2236BFD&rd=1&h=MFCK8femKXk5U21ZiQM71ZrwW0yb0YZyF0VREYlZzg8&v=1&r=https%3a%2f%2fsmithsoniancampaign.org%2funit%2fnational-museum-american-history&p=DevEx,5423.1
p273
sg13
g271
sg14
VAt the National Museum of American History, we are keepers of the objects and stories that bind us together as the most diverse country on Earth.
p274
sg16
(dp275
g18
g271
sg19
g273
sg35
V2017-03-31T12:34:00
p276
sg37
g272
sg24
g274
sg38
Vhttps://api.cognitive.microsoft.com/api/v5/#WebPages.18
p277
ssg40
g277
sg41
Nsg42
g274
sbag1
(g2
g3
Ntp278
Rp279
(dp280
g7
VNational Museum of American History - yelp.com
p281
sg9
Vhttps://www.yelp.com/biz/national-museum-of-american-history...
p282
sg11
Vhttps://www.bing.com/cr?IG=4BBE7976657C4D29A0DA6CA49DA41215&CID=299F2D8BF3CA6A5902BA27D4F2236BFD&rd=1&h=Haqe0qbNSpuIfVlVhmmNMs-Od7LuiXLmfchkNKpMw4c&v=1&r=https%3a%2f%2fwww.yelp.com%2fbiz%2fnational-museum-of-american-history-washington&p=DevEx,5448.1
p283
sg13
g281
sg14
VThe National Museum of American History seems to be the one that people see as the most approachable, which makes sense considering most people grew up with dominantly American history courses.
p284
sg16
(dp285
g18
g281
sg19
g283
sg35
V2017-03-21T11:10:00
p286
sg37
g282
sg24
g284
sg38
Vhttps://api.cognitive.microsoft.com/api/v5/#WebPages.19
p287
ssg40
g287
sg41
Nsg42
g284
sbag1
(g2
g3
Ntp288
Rp289
(dp290
g7
VNational Museum of American History - frommers.com
p291
sg9
Vwww.frommers.com/.../attractions/national-museum-of-american-history
p292
sg11
Vhttp://www.bing.com/cr?IG=4BBE7976657C4D29A0DA6CA49DA41215&CID=299F2D8BF3CA6A5902BA27D4F2236BFD&rd=1&h=L-EtJcPPgixTxplRLIQp9JkzRF5MZIqPfYTYhJNfZLk&v=1&r=http%3a%2f%2fwww.frommers.com%2fdestinations%2fwashington-d-c%2fattractions%2fnational-museum-of-american-history&p=DevEx,5471.1
p293
sg13
g291
sg14
VHow does one museum possibly sum up the history of a nation that is 239 years old, 3.8 million square miles in size, and has a population of 317 million people?
p294
sg16
(dp295
g18
g291
sg19
g293
sg35
V2017-03-20T04:29:00
p296
sg37
g292
sg24
g294
sg38
Vhttps://api.cognitive.microsoft.com/api/v5/#WebPages.20
p297
ssg40
g297
sg41
Nsg42
g294
sbag1
(g2
g3
Ntp298
Rp299
(dp300
g7
VDonate | National Museum of American History
p301
sg9
Vamhistory.si.edu/donate
p302
sg11
Vhttp://www.bing.com/cr?IG=4BBE7976657C4D29A0DA6CA49DA41215&CID=299F2D8BF3CA6A5902BA27D4F2236BFD&rd=1&h=DbF5gk_wLXEeQ9pOwnJpi8ihIErXvmcOKvrKsN8DkL0&v=1&r=http%3a%2f%2famhistory.si.edu%2fdonate%2f&p=DevEx,5483.1
p303
sg13
g301
sg14
VSupport the National Museum of American History\u2019s Director\u2019s Fund with a generous gift of $50 or more and receive exclusive insider communications.
p304
sg16
(dp305
g18
g301
sg19
g303
sg35
V2017-03-15T14:16:00
p306
sg37
g302
sg24
g304
sg38
Vhttps://api.cognitive.microsoft.com/api/v5/#WebPages.21
p307
ssg40
g307
sg41
Nsg42
g304
sbag1
(g2
g3
Ntp308
Rp309
(dp310
g7
VNational Museum of American History - Roadtrippers
p311
sg9
Vhttps://roadtrippers.com/.../national-museum-of-american-history
p312
sg11
Vhttps://www.bing.com/cr?IG=4BBE7976657C4D29A0DA6CA49DA41215&CID=299F2D8BF3CA6A5902BA27D4F2236BFD&rd=1&h=F5NPOjlH4zzjhi_mh1_O9euWAki9XzTFDfoZ-Tplxew&v=1&r=https%3a%2f%2froadtrippers.com%2fus%2fwashington-dc%2fattractions%2fnational-museum-of-american-history&p=DevEx,5497.1
p313
sg13
g311
sg14
VNational Museum of American History is a Library in Washington. Plan your road trip to National Museum of American History in DC with Roadtrippers.
p314
sg16
(dp315
g18
g311
sg19
g313
sg35
V2017-03-22T15:32:00
p316
sg37
g312
sg24
g314
sg38
Vhttps://api.cognitive.microsoft.com/api/v5/#WebPages.22
p317
ssg40
g317
sg41
Nsg42
g314
sbag1
(g2
g3
Ntp318
Rp319
(dp320
g7
VNational Museum of American History | Wikiwand
p321
sg9
Vwww.wikiwand.com/en/National_Museum_of_American_History
p322
sg11
Vhttp://www.bing.com/cr?IG=4BBE7976657C4D29A0DA6CA49DA41215&CID=299F2D8BF3CA6A5902BA27D4F2236BFD&rd=1&h=lVA_qxbdM3tiJfNF2RDwxCwOpDO-uVA-LzDG_duZ0eo&v=1&r=http%3a%2f%2fwww.wikiwand.com%2fen%2fNational_Museum_of_American_History&p=DevEx,5511.1
p323
sg13
g321
sg14
VThe National Museum of American History: Kenneth E. Behring Center collects, preserves, and displays the heritage of the United States in the areas of social, political, cultural, scientific, and military history. Among the items on display is the original Star-Spangled Banner. The museum is part of the Smithsonian Institution and located on the National Mall at 14th Street and Constitution Avenue NW in Washington, D.C.
p324
sg16
(dp325
g18
g321
sg19
g323
sg35
V2017-03-19T11:27:00
p326
sg37
g322
sg24
g324
sg38
Vhttps://api.cognitive.microsoft.com/api/v5/#WebPages.23
p327
ssg40
g327
sg41
Nsg42
g324
sbag1
(g2
g3
Ntp328
Rp329
(dp330
g7
VNational Museum of American History - viator.com
p331
sg9
Vhttps://www.viator.com/Washington-DC-attractions/National-Museum...
p332
sg11
Vhttps://www.bing.com/cr?IG=4BBE7976657C4D29A0DA6CA49DA41215&CID=299F2D8BF3CA6A5902BA27D4F2236BFD&rd=1&h=gKqsJG-iOGuA2q6ASn-AK18a_JJdmGLDfR67ZHj4-e4&v=1&r=https%3a%2f%2fwww.viator.com%2fWashington-DC-attractions%2fNational-Museum-of-American-History%2fd657-a17403&p=DevEx,5535.1
p333
sg13
g331
sg14
VThe National Museum of American History opened in 1964 under a different name. The Museum is listed on the National Register of Historic Places and is a National Historic Landmark.
p334
sg16
(dp335
g59
(lp336
(dp337
g18
VNational Museum of American History
p338
sasg18
g331
sg19
g333
sg35
V2017-03-21T19:17:00
p339
sg37
g332
sg24
g334
sg38
Vhttps://api.cognitive.microsoft.com/api/v5/#WebPages.24
p340
ssg40
g340
sg41
Nsg42
g334
sbag1
(g2
g3
Ntp341
Rp342
(dp343
g7
VNational Museum of American History | Facebook
p344
sg9
Vhttps://en-gb.facebook.com/americanhistory
p345
sg11
Vhttps://www.bing.com/cr?IG=4BBE7976657C4D29A0DA6CA49DA41215&CID=299F2D8BF3CA6A5902BA27D4F2236BFD&rd=1&h=AnwFJ19zrWNZWB7CJxxFYB8aqEis74Q_uoTkvPDIBN0&v=1&r=https%3a%2f%2fen-gb.facebook.com%2famericanhistory&p=DevEx,5556.1
p346
sg13
g344
sg14
VNational Museum of American History, Washington, DC. 218,590 likes  5,938 talking about this  363,680 were here. Home of the Star-Spangled Banner, the...
p347
sg16
(dp348
g18
g344
sg19
g346
sg35
V2017-03-11T21:02:00
p349
sg37
g345
sg24
g347
sg38
Vhttps://api.cognitive.microsoft.com/api/v5/#WebPages.25
p350
ssg40
g350
sg41
Nsg42
g347
sbag1
(g2
g3
Ntp351
Rp352
(dp353
g7
VFlickr: national museum of american history
p354
sg9
Vhttps://www.flickr.com/people/nationalmuseumofamericanhistory
p355
sg11
Vhttps://www.bing.com/cr?IG=4BBE7976657C4D29A0DA6CA49DA41215&CID=299F2D8BF3CA6A5902BA27D4F2236BFD&rd=1&h=dpyGU2-Dkgi_gKQah1YHQwh4Gczt34pIawHJvVf6gFE&v=1&r=https%3a%2f%2fwww.flickr.com%2fpeople%2fnationalmuseumofamericanhistory%2f&p=DevEx,5569.1
p356
sg13
g354
sg14
VThe National Museum of American History dedicates its collections and scholarship to inspiring a broader understanding of our nation and its many peoples.
p357
sg16
(dp358
g18
g354
sg19
g356
sg35
V2017-04-01T00:50:00
p359
sg37
g355
sg24
g357
sg38
Vhttps://api.cognitive.microsoft.com/api/v5/#WebPages.26
p360
ssg40
g360
sg41
Nsg42
g357
sbag1
(g2
g3
Ntp361
Rp362
(dp363
g7
VNational Museum of American History Library
p364
sg9
Vlibrary.si.edu/libraries/national-museum-american-history-library
p365
sg11
Vhttp://www.bing.com/cr?IG=4BBE7976657C4D29A0DA6CA49DA41215&CID=299F2D8BF3CA6A5902BA27D4F2236BFD&rd=1&h=nJzWkevROfEtFTyKGjpBDumdoIrH10SgQ6eUCJubX5w&v=1&r=http%3a%2f%2flibrary.si.edu%2flibraries%2fnational-museum-american-history-library&p=DevEx,5583.1
p366
sg13
g364
sg14
VAs a premier American history collection and one of 21 branch libraries in the Smithsonian Libraries system, the National Museum of American History (NMAH) Library supports research in the following areas:
p367
sg16
(dp368
g18
g364
sg19
g366
sg35
V2017-03-30T19:56:00
p369
sg37
g365
sg24
g367
sg38
Vhttps://api.cognitive.microsoft.com/api/v5/#WebPages.27
p370
ssg40
g370
sg41
Nsg42
g367
sbag1
(g2
g3
Ntp371
Rp372
(dp373
g7
VNational Museum of American History - OnBoard Tours
p374
sg9
Vwashingtondctours.onboardtours.com/dc-attractions/smithsonian...
p375
sg11
Vhttp://www.bing.com/cr?IG=4BBE7976657C4D29A0DA6CA49DA41215&CID=299F2D8BF3CA6A5902BA27D4F2236BFD&rd=1&h=xO1NwAchbiJuoSqZjcDHurHWJuw6ox9wfeKfRNAPUzI&v=1&r=http%3a%2f%2fwashingtondctours.onboardtours.com%2fdc-attractions%2fsmithsonian-institution-washington-dc%2fnational-museum-of-american-history%2f&p=DevEx,5596.1
p376
sg13
g374
sg14
VSmithsonian Institution Washington DC. National Museum of American History; National Museum of Natural History; Smithsonian American Art Museum; National Portrait Gallery; ... The National Museum of American History is part of the Smithsonian Institution. It is located on the National Mall at Washington, D.C. The museum opened in 1964 as the Museum of History and Technology.
p377
sg16
(dp378
g18
g374
sg19
g376
sg35
V2017-04-03T19:44:00
p379
sg37
g375
sg24
g377
sg38
Vhttps://api.cognitive.microsoft.com/api/v5/#WebPages.28
p380
ssg40
g380
sg41
Nsg42
g377
sbag1
(g2
g3
Ntp381
Rp382
(dp383
g7
VNational Museum of American History in Washington
p384
sg9
Vmuseums.wanderbat.com/l/158/National-Museum-of-American-History
p385
sg11
Vhttp://www.bing.com/cr?IG=4BBE7976657C4D29A0DA6CA49DA41215&CID=299F2D8BF3CA6A5902BA27D4F2236BFD&rd=1&h=ch8dp5X6RBY40vwP8fFJ-PYJX9OamG-L3Rq9vn18gOY&v=1&r=http%3a%2f%2fmuseums.wanderbat.com%2fl%2f158%2fNational-Museum-of-American-History&p=DevEx,5610.1
p386
sg13
g384
sg14
VDetails for National Museum of American History in Washington, District of Columbia. Find info on featured collections, admission prices, annual attendance, and more.
p387
sg16
(dp388
g18
g384
sg19
g386
sg35
V2017-03-29T09:16:00
p389
sg37
g385
sg24
g387
sg38
Vhttps://api.cognitive.microsoft.com/api/v5/#WebPages.29
p390
ssg40
g390
sg41
Nsg42
g387
sbag1
(g2
g3
Ntp391
Rp392
(dp393
g7
VNational Museum of American History Internship | Smithsonian ...
p394
sg9
Vhttps://www.smithsonianofi.com/internship-opportunities/national...
p395
sg11
Vhttps://www.bing.com/cr?IG=4BBE7976657C4D29A0DA6CA49DA41215&CID=299F2D8BF3CA6A5902BA27D4F2236BFD&rd=1&h=TB1I7TyBfFy8p--hk9uu93ybtXhVwqF4ZWw0c-Ai6Bc&v=1&r=https%3a%2f%2fwww.smithsonianofi.com%2finternship-opportunities%2fnational-museum-of-american-history-internship%2f&p=DevEx,5622.1
p396
sg13
g394
sg14
VThe National Museum of American History internship program allows a diverse group of people with innumerable interests, strengths, and goals to encounter an educational environment where they can work with and learn from professionals and scholars in related areas of concentration.
p397
sg16
(dp398
g18
g394
sg19
g396
sg35
V2017-03-29T14:05:00
p399
sg37
g395
sg24
g397
sg38
Vhttps://api.cognitive.microsoft.com/api/v5/#WebPages.30
p400
ssg40
g400
sg41
Nsg42
g397
sbag1
(g2
g3
Ntp401
Rp402
(dp403
g7
VNational Museum of American History - history.navy.mil
p404
sg9
Vhttps://www.history.navy.mil/research/library/research-guides/...
p405
sg11
Vhttps://www.bing.com/cr?IG=4BBE7976657C4D29A0DA6CA49DA41215&CID=299F2D8BF3CA6A5902BA27D4F2236BFD&rd=1&h=GZcn9oMOo8y2YFIQgq7kLC_pbJoN5x4g6uCHy0wJ1uc&v=1&r=https%3a%2f%2fwww.history.navy.mil%2fresearch%2flibrary%2fresearch-guides%2fsource-guide-entry-by-state%2fdistrict-of-columbia%2fnational-museum-of-american-history.html&p=DevEx,5636.1
p406
sg13
g404
sg14
VNational Museum of American History Smithsonian Institution 14 th Street and Constitution Avenue NW Washington, DC 20560 . Armed Forces History Collections, Naval History
p407
sg16
(dp408
g18
g404
sg19
g406
sg35
V2017-02-16T11:49:00
p409
sg37
g405
sg24
g407
sg38
Vhttps://api.cognitive.microsoft.com/api/v5/#WebPages.31
p410
ssg40
g410
sg41
Nsg42
g407
sbag1
(g2
g3
Ntp411
Rp412
(dp413
g7
VNational Museum of American History | Facebook
p414
sg9
Vhttps://www.nl-nl.prod.facebook.com/pages/National-Museum-of...
p415
sg11
Vhttps://www.bing.com/cr?IG=4BBE7976657C4D29A0DA6CA49DA41215&CID=299F2D8BF3CA6A5902BA27D4F2236BFD&rd=1&h=hMRJYqwhVkdnV49D8KzwKpjRuQfEfKG5dl4Pe7jjJQw&v=1&r=https%3a%2f%2fwww.nl-nl.prod.facebook.com%2fpages%2fNational-Museum-of-American-History%2f18351457517&p=DevEx,5652.1
p416
sg13
g414
sg14
VNational Museum of American History, Washington, DC. 219,038 likes  6,829 talking about this  365,411 were here. Home of the Star-Spangled Banner, the...
p417
sg16
(dp418
g18
g414
sg19
g416
sg35
V2017-03-19T00:41:00
p419
sg37
g415
sg24
g417
sg38
Vhttps://api.cognitive.microsoft.com/api/v5/#WebPages.32
p420
ssg40
g420
sg41
Nsg42
g417
sbag1
(g2
g3
Ntp421
Rp422
(dp423
g7
VAmerican History Museum - SmithsonianSleepovers.org
p424
sg9
Vsmithsoniansleepovers.org/american-history/index.shtm
p425
sg11
Vhttp://www.bing.com/cr?IG=4BBE7976657C4D29A0DA6CA49DA41215&CID=299F2D8BF3CA6A5902BA27D4F2236BFD&rd=1&h=kcMSQvS1A41JrxTKkKB69QVt4HHWku8C8meTg2ZesuU&v=1&r=http%3a%2f%2fsmithsoniansleepovers.org%2famerican-history%2findex.shtm&p=DevEx,5665.1
p426
sg13
g424
sg14
VSolve a Smithsonian mystery of historic proportions! The devious diva Miss Rose has stolen six valuable objects from the National Museum of American History\u2014and you need to discover what\u2019s missing before evening's end.
p427
sg16
(dp428
g18
g424
sg19
g426
sg35
V2017-03-30T22:19:00
p429
sg37
g425
sg24
g427
sg38
Vhttps://api.cognitive.microsoft.com/api/v5/#WebPages.33
p430
ssg40
g430
sg41
Nsg42
g427
sbag1
(g2
g3
Ntp431
Rp432
(dp433
g7
VUltimate Guide To The National Museum of American History
p434
sg9
Vhttps://www.trolleytours.com/.../national-museum-american-history
p435
sg11
Vhttps://www.bing.com/cr?IG=4BBE7976657C4D29A0DA6CA49DA41215&CID=299F2D8BF3CA6A5902BA27D4F2236BFD&rd=1&h=t_nJznekDkT6HW-u8Uf01VvyMFpl6O01ncSmyhd2JoY&v=1&r=https%3a%2f%2fwww.trolleytours.com%2fwashington-dc%2fnational-museum-american-history&p=DevEx,5678.1
p436
sg13
g434
sg14
VStep inside the National Museum of American History and experience the passion, creativity and inspiration of the American people. Walk through the fascinating exhibits and collections and transport yourself through hundreds of years of history, culture and the lives of our people.
p437
sg16
(dp438
g18
g434
sg19
g436
sg35
V2017-03-29T05:39:00
p439
sg37
g435
sg24
g437
sg38
Vhttps://api.cognitive.microsoft.com/api/v5/#WebPages.34
p440
ssg40
g440
sg41
Nsg42
g437
sbag1
(g2
g3
Ntp441
Rp442
(dp443
g7
VNational Museum of American History Parking
p444
sg9
Vhttps://www.parkingpanda.com/national-museum-of-american-history...
p445
sg11
Vhttps://www.bing.com/cr?IG=4BBE7976657C4D29A0DA6CA49DA41215&CID=299F2D8BF3CA6A5902BA27D4F2236BFD&rd=1&h=WKhBZr4ITQCqkTcjAXE1IEbCQMP3TOu2Es0ZJmgv8GU&v=1&r=https%3a%2f%2fwww.parkingpanda.com%2fnational-museum-of-american-history-parking&p=DevEx,5692.1
p446
sg13
g444
sg14
VNational Museum of American History Parking. Book guaranteed parking near the National Museum of American History (NMAH). Street parking can be difficult to find near the National Mall.
p447
sg16
(dp448
g18
g444
sg19
g446
sg35
V2017-03-27T10:44:00
p449
sg37
g445
sg24
g447
sg38
Vhttps://api.cognitive.microsoft.com/api/v5/#WebPages.35
p450
ssg40
g450
sg41
Nsg42
g447
sbag1
(g2
g3
Ntp451
Rp452
(dp453
g7
VNational Museum of American History | Newsdesk
p454
sg9
Vnewsdesk.si.edu/factsheets/national-museum-american-history
p455
sg11
Vhttp://www.bing.com/cr?IG=4BBE7976657C4D29A0DA6CA49DA41215&CID=299F2D8BF3CA6A5902BA27D4F2236BFD&rd=1&h=xSQD-hP4T7sQuCIpHxVkYJakH6iHBKpwUwPtWsWpzXA&v=1&r=http%3a%2f%2fnewsdesk.si.edu%2ffactsheets%2fnational-museum-american-history&p=DevEx,5705.1
p456
sg13
g454
sg14
VSmithsonian's National Museum of American History, Kenneth E. Behring Center, Facing South.
p457
sg16
(dp458
g59
(lp459
(dp460
g18
VNational Museum of American History
p461
sasg18
g454
sg19
g456
sg35
V2017-03-29T06:47:00
p462
sg37
g455
sg24
g457
sg38
Vhttps://api.cognitive.microsoft.com/api/v5/#WebPages.36
p463
ssg40
g463
sg41
Nsg42
g457
sbag1
(g2
g3
Ntp464
Rp465
(dp466
g7
VNational Museum of American History, Washington
p467
sg9
Vwww.aviewoncities.com/washington/museumofamericanhistory.htm
p468
sg11
Vhttp://www.bing.com/cr?IG=4BBE7976657C4D29A0DA6CA49DA41215&CID=299F2D8BF3CA6A5902BA27D4F2236BFD&rd=1&h=nhzS1oPK0AFe5lWoA5MrrRVO9RVbw_KxH86ejR-dZ4w&v=1&r=http%3a%2f%2fwww.aviewoncities.com%2fwashington%2fmuseumofamericanhistory.htm&p=DevEx,5719.1
p469
sg13
g467
sg14
VThe National Museum of American History is one of the many museums operated by the Smithsonian Institution, which was founded in the early nineteenth century thanks to a bequest by the British scientist James Smithson.
p470
sg16
(dp471
g18
g467
sg19
g469
sg35
V2017-03-26T01:47:00
p472
sg37
g468
sg24
g470
sg38
Vhttps://api.cognitive.microsoft.com/api/v5/#WebPages.37
p473
ssg40
g473
sg41
Nsg42
g470
sbag1
(g2
g3
Ntp474
Rp475
(dp476
g7
VNational Museum of American History - foursquare.com
p477
sg9
Vhttps://foursquare.com/v/national-museum-of-american-history/4a...
p478
sg11
Vhttps://www.bing.com/cr?IG=4BBE7976657C4D29A0DA6CA49DA41215&CID=299F2D8BF3CA6A5902BA27D4F2236BFD&rd=1&h=Vb13BdRDH3I_1-R2fOk0gIoJTBtvDy_jx7WU8Cse2F0&v=1&r=https%3a%2f%2ffoursquare.com%2fv%2fnational-museum-of-american-history%2f4a106336f964a520b4761fe3&p=DevEx,5745.1
p479
sg13
g477
sg14
VRelated Searches. national museum of american history washington \u2022 national museum of american history washington photos \u2022 national museum of american history washington location
p480
sg16
(dp481
g59
(lp482
(dp483
g18
VNational Museum of American History
p484
sa(dp485
g18
VSmithsonian - National Museum of American History
p486
sasg18
g477
sg19
g479
sg35
V2017-04-01T22:34:00
p487
sg37
g478
sg24
g480
sg38
Vhttps://api.cognitive.microsoft.com/api/v5/#WebPages.38
p488
ssg40
g488
sg41
Nsg42
g480
sbag1
(g2
g3
Ntp489
Rp490
(dp491
g7
VNational Museum of American History - Google+
p492
sg9
Vhttps://plus.google.com/+nationalmuseumofamericanhistory
p493
sg11
Vhttps://www.bing.com/cr?IG=4BBE7976657C4D29A0DA6CA49DA41215&CID=299F2D8BF3CA6A5902BA27D4F2236BFD&rd=1&h=3fn3jYetLNE7HWBcv_bd8d3aEEyq2IMCEK_zrfNtG3A&v=1&r=https%3a%2f%2fplus.google.com%2f%2bnationalmuseumofamericanhistory&p=DevEx,5758.1
p494
sg13
g492
sg14
VNational Museum of American History. Public ...
p495
sg16
(dp496
g59
(lp497
(dp498
g18
VNational Museum of American History
p499
sasg18
g492
sg19
g494
sg35
V2017-03-26T15:17:00
p500
sg37
g493
sg24
g495
sg38
Vhttps://api.cognitive.microsoft.com/api/v5/#WebPages.39
p501
ssg40
g501
sg41
Nsg42
g495
sbag1
(g2
g3
Ntp502
Rp503
(dp504
g7
VNational Museum of American History - GetYourGuide
p505
sg9
Vhttps://www.getyourguide.com/national-museum-of-american-history-l3659
p506
sg11
Vhttps://www.bing.com/cr?IG=4BBE7976657C4D29A0DA6CA49DA41215&CID=299F2D8BF3CA6A5902BA27D4F2236BFD&rd=1&h=PbUu6cla9aD1jsyXDjZuqFdRjJsfC7YPvenm6N0P9_4&v=1&r=https%3a%2f%2fwww.getyourguide.com%2fnational-museum-of-american-history-l3659%2f&p=DevEx,5779.1
p507
sg13
g505
sg14
VBook your National Museum of American History tickets online and skip-the-line! Save time and money with our best price guarantee make the most of your visit to Washington, DC!
p508
sg16
(dp509
g18
g505
sg19
g507
sg35
V2017-03-31T07:50:00
p510
sg37
g506
sg24
g508
sg38
Vhttps://api.cognitive.microsoft.com/api/v5/#WebPages.40
p511
ssg40
g511
sg41
Nsg42
g508
sba.