(lp0
ccopy_reg
_reconstructor
p1
(cpy_ms_cognitive.py_ms_cognitive_search.py_ms_cognitive_web_search
WebResult
p2
c__builtin__
object
p3
Ntp4
Rp5
(dp6
S'name'
p7
VAccessibility - Wikipedia
p8
sS'display_url'
p9
Vhttps://en.wikipedia.org/wiki/Accessibility
p10
sS'url'
p11
Vhttps://www.bing.com/cr?IG=B71903F2F1A540BEBDE0C52361577084&CID=1AF5A19B6C2C68CB08D9ABC46DC56963&rd=1&h=m7B2-tvSIuh75C2UYTL-GSeqJlEMSDhM6SgIjrQdDHA&v=1&r=https%3a%2f%2fen.wikipedia.org%2fwiki%2fAccessibility&p=DevEx,5121.1
p12
sS'title'
p13
g8
sS'snippet'
p14
VA wheelchair accessible taxi with a rear ramp, Tokyo Motor Show 2009. Wheelchair-access ramp in Protram 205 WrAs tram. In transportation, accessibility refers to the ease of reaching destinations. Academics have disputed how the term "ease" should be defined and measured. People who are in places that are highly accessible can reach many other activities or destinations quickly, people in inaccessible places can reach fewer places in the same amount of time.
p15
sS'json'
p16
(dp17
VsnippetAttribution
p18
(dp19
VlicenseNotice
p20
VText under CC-BY-SA license
p21
sVlicense
p22
(dp23
Vurl
p24
Vhttp://www.bing.com/cr?IG=B71903F2F1A540BEBDE0C52361577084&CID=1AF5A19B6C2C68CB08D9ABC46DC56963&rd=1&h=tJYnHtBaEymlKo_fRl0wo_ZHu4dAaCwVMH_BvcixOgM&v=1&r=http%3a%2f%2fcreativecommons.org%2flicenses%2fby-sa%2f3.0%2f&p=DevEx,6046.1
p25
sVname
p26
VCC-BY-SA
p27
sssVabout
p28
(lp29
(dp30
g26
VAccessibility
p31
sasg26
g8
sg24
g12
sVdeepLinks
p32
(lp33
(dp34
g24
Vhttps://www.bing.com/cr?IG=B71903F2F1A540BEBDE0C52361577084&CID=1AF5A19B6C2C68CB08D9ABC46DC56963&rd=1&h=9Y0bvCUuVDbDLahZWap-SaQ_SF8YfxyJLmgEEzQbtfo&v=1&r=https%3a%2f%2fen.wikipedia.org%2fwiki%2fUnited_States_Access_Board&p=DevEx,5110.1
p35
sg26
VUnited States Access Board
p36
sa(dp37
g24
Vhttps://www.bing.com/cr?IG=B71903F2F1A540BEBDE0C52361577084&CID=1AF5A19B6C2C68CB08D9ABC46DC56963&rd=1&h=2ju-JTmJ64crtiPA3El7_Go563W1jWMlG6H3PMGktqE&v=1&r=https%3a%2f%2fen.wikipedia.org%2fwiki%2fGame_accessibility&p=DevEx,5111.1
p38
sg26
VGame Accessibility
p39
sa(dp40
g24
Vhttps://www.bing.com/cr?IG=B71903F2F1A540BEBDE0C52361577084&CID=1AF5A19B6C2C68CB08D9ABC46DC56963&rd=1&h=rMezQk8__mFVR2dc2neRjwAx64EB4XJbbPXRS8Y6SsA&v=1&r=https%3a%2f%2fen.wikipedia.org%2fwiki%2fCategory%3aAccessibility&p=DevEx,5112.1
p41
sg26
VCategory:Accessibility
p42
sasVdateLastCrawled
p43
V2017-04-01T16:37:00
p44
sVdisplayUrl
p45
g10
sVsnippet
p46
g15
sVid
p47
Vhttps://api.cognitive.microsoft.com/api/v5/#WebPages.0
p48
ssS'id'
p49
g48
sS'deep_links'
p50
g33
sS'description'
p51
g15
sbag1
(g2
g3
Ntp52
Rp53
(dp54
g7
VADA Standards for Accessible Design - ada.gov
p55
sg9
Vhttps://www.ada.gov/2010ADAstandards_index.htm
p56
sg11
Vhttps://www.bing.com/cr?IG=B71903F2F1A540BEBDE0C52361577084&CID=1AF5A19B6C2C68CB08D9ABC46DC56963&rd=1&h=YqpOM2KU8EQMcT2h1K5eyrB2SK2rj2RRuYl09DlOUPM&v=1&r=https%3a%2f%2fwww.ada.gov%2f2010ADAstandards_index.htm&p=DevEx,5131.1
p57
sg13
g55
sg14
VWe would like to show you a description here but the site won\u2019t allow us.
p58
sg16
(dp59
g26
g55
sg24
g57
sg43
V2017-04-02T22:44:00
p60
sg45
g56
sg46
g58
sg47
Vhttps://api.cognitive.microsoft.com/api/v5/#WebPages.1
p61
ssg49
g61
sg50
Nsg51
g58
sbag1
(g2
g3
Ntp62
Rp63
(dp64
g7
VAmericans with Disabilities Act of 1990 - Wikipedia
p65
sg9
Vhttps://en.wikipedia.org/wiki/Americans_with_Disabilities_Act_of_1990
p66
sg11
Vhttps://www.bing.com/cr?IG=B71903F2F1A540BEBDE0C52361577084&CID=1AF5A19B6C2C68CB08D9ABC46DC56963&rd=1&h=7-IoIaQ0NJWHdLp7K_IDhR2t2NGv0w3XrVo4wYdnta0&v=1&r=https%3a%2f%2fen.wikipedia.org%2fwiki%2fAmericans_with_Disabilities_Act_of_1990&p=DevEx,5152.1
p67
sg13
g65
sg14
VAmericans with Disabilities Act of 1990; Long title: An Act to establish a clear and comprehensive prohibition of discrimination on the basis of disability
p68
sg16
(dp69
g28
(lp70
(dp71
g26
VAmericans with Disabilities Act of 1990
p72
sasg26
g65
sg24
g67
sg43
V2017-04-04T12:08:00
p73
sg45
g66
sg46
g68
sg47
Vhttps://api.cognitive.microsoft.com/api/v5/#WebPages.2
p74
ssg49
g74
sg50
Nsg51
g68
sbag1
(g2
g3
Ntp75
Rp76
(dp77
g7
VADAAG - United States Access Board
p78
sg9
Vhttps://www.access-board.gov/guidelines-and-standards/buildings...
p79
sg11
Vhttps://www.bing.com/cr?IG=B71903F2F1A540BEBDE0C52361577084&CID=1AF5A19B6C2C68CB08D9ABC46DC56963&rd=1&h=32u01r18AnCEOFmiioXCnOLC0ZWiRaJtYKqA4ehQhEg&v=1&r=https%3a%2f%2fwww.access-board.gov%2fguidelines-and-standards%2fbuildings-and-sites%2fabout-the-ada-standards%2fbackground%2fadaag&p=DevEx,5164.1
p80
sg13
g78
sg14
VADA Accessibility Guidelines (ADAAG) Attachments: adaag.pdf: As amended through September 2002. 1. PURPOSE 2. GENERAL 3. MISCELLANEOUS INSTRUCTIONS AND DEFINITIONS 4. ACCESSIBLE ELEMENTS AND SPACES: SCOPE AND TECHNICAL REQUIREMENTS. ... In places of assembly with fixed seating accessible wheelchair locations shall comply with 4.33.2, 4.33.3, and 4.33.4 and shall be provided consistent with the following table: Capacity of Seating in Assembly Area Number of Required Wheelchair Locations; 4 to ...
p81
sg16
(dp82
g26
g78
sg24
g80
sg43
V2017-03-29T21:40:00
p83
sg45
g79
sg46
g81
sg47
Vhttps://api.cognitive.microsoft.com/api/v5/#WebPages.3
p84
ssg49
g84
sg50
Nsg51
g81
sbag1
(g2
g3
Ntp85
Rp86
(dp87
g7
VHome Changes - Wheelchair Accessible Remodeling - Adaptive Access
p88
sg9
Vwww.adaptiveaccess.com/home_changes.php
p89
sg11
Vhttp://www.bing.com/cr?IG=B71903F2F1A540BEBDE0C52361577084&CID=1AF5A19B6C2C68CB08D9ABC46DC56963&rd=1&h=tlA8GUuyaY-5NxuAoX454NUq5qx5XxAvtDCgXnVMsQ8&v=1&r=http%3a%2f%2fwww.adaptiveaccess.com%2fhome_changes.php&p=DevEx,5176.1
p90
sg13
g88
sg14
VWheelchair accessible home construction, modifications and remodeling in Houston, Texas can make life easier for the elderly and people with disabilities.
p91
sg16
(dp92
g26
g88
sg24
g90
sg43
V2017-04-03T05:01:00
p93
sg45
g89
sg46
g91
sg47
Vhttps://api.cognitive.microsoft.com/api/v5/#WebPages.4
p94
ssg49
g94
sg50
Nsg51
g91
sbag1
(g2
g3
Ntp95
Rp96
(dp97
g7
Vwheelchair accessibility - Wikidata
p98
sg9
Vhttps://www.wikidata.org/wiki/Property:P2846
p99
sg11
Vhttps://www.bing.com/cr?IG=B71903F2F1A540BEBDE0C52361577084&CID=1AF5A19B6C2C68CB08D9ABC46DC56963&rd=1&h=GPhD5OY4h1zz_y0Pd_8pOTmwwTlom_-nFM7XQmoevW4&v=1&r=https%3a%2f%2fwww.wikidata.org%2fwiki%2fProperty%3aP2846&p=DevEx,5189.1
p100
sg13
g98
sg14
Vdescribes wheelchair accessibility of location or event. wheelchair accessibility (P2846) From Wikidata. Jump to: navigation, search. describes wheelchair accessibility of location or event. accessibility for wheelchair users; disabled accessibility; easy access; step-free access; edit. Language Label Description Also known as; English: wheelchair accessibility. describes wheelchair accessibility of location or event. accessibility for wheelchair users;
p101
sg16
(dp102
g26
g98
sg24
g100
sg43
V2017-04-03T13:42:00
p103
sg45
g99
sg46
g101
sg47
Vhttps://api.cognitive.microsoft.com/api/v5/#WebPages.5
p104
ssg49
g104
sg50
Nsg51
g101
sbag1
(g2
g3
Ntp105
Rp106
(dp107
g7
VWheelchair Accessible Vans | Mobility Vehicles | VMI
p108
sg9
Vhttps://www.vantagemobility.com
p109
sg11
Vhttps://www.bing.com/cr?IG=B71903F2F1A540BEBDE0C52361577084&CID=1AF5A19B6C2C68CB08D9ABC46DC56963&rd=1&h=aHEvL-UStiu24Wm7zR2D5FZ8Fk0ju94UHHcL2GrXXv4&v=1&r=https%3a%2f%2fwww.vantagemobility.com%2f&p=DevEx,5202.1
p110
sg13
g108
sg14
VVantage Mobility International offers top-of-the-line wheelchair accessible vans & minivans. View our fleet of mobility vehicles online today.
p111
sg16
(dp112
g26
g108
sg24
g110
sg43
V2017-03-30T19:55:00
p113
sg45
g109
sg46
g111
sg47
Vhttps://api.cognitive.microsoft.com/api/v5/#WebPages.6
p114
ssg49
g114
sg50
Nsg51
g111
sbag1
(g2
g3
Ntp115
Rp116
(dp117
g7
VWheelchair access & avoiding stairs - Transport for London
p118
sg9
Vhttps://tfl.gov.uk/transport-accessibility/wheelchair-access-and...
p119
sg11
Vhttps://www.bing.com/cr?IG=B71903F2F1A540BEBDE0C52361577084&CID=1AF5A19B6C2C68CB08D9ABC46DC56963&rd=1&h=KwIvt-YwPNPWYBdSvZqe3aZy5dXuHtesBQ7diKGIVIQ&v=1&r=https%3a%2f%2ftfl.gov.uk%2ftransport-accessibility%2fwheelchair-access-and-avoiding-stairs&p=DevEx,5217.1
p120
sg13
g118
sg14
VStep-free access means lifts, ramps and level surfaces so you don't have to use stairs or escalators, and can avoid the step and gap onto our trains, buses and boats.
p121
sg16
(dp122
g26
g118
sg24
g120
sg43
V2017-03-31T20:59:00
p123
sg45
g119
sg46
g121
sg47
Vhttps://api.cognitive.microsoft.com/api/v5/#WebPages.7
p124
ssg49
g124
sg50
Nsg51
g121
sbag1
(g2
g3
Ntp125
Rp126
(dp127
g7
VWheelchairTravel.org I Wheelchair Accessible Travel Blog
p128
sg9
Vhttps://wheelchairtravel.org
p129
sg11
Vhttps://www.bing.com/cr?IG=B71903F2F1A540BEBDE0C52361577084&CID=1AF5A19B6C2C68CB08D9ABC46DC56963&rd=1&h=1FQc3Tfs4zqcsts8EIgCDdanGZS0yg6uvbT-xuBQoL8&v=1&r=https%3a%2f%2fwheelchairtravel.org%2f&p=DevEx,5231.1
p130
sg13
g128
sg14
VWheelchair travel blog with accessible vacation information on cities in the U.S., Europe, Asia & Middle East. Answers to FAQ on disabled air travel & more.
p131
sg16
(dp132
g26
g128
sg24
g130
sg43
V2017-04-03T13:07:00
p133
sg45
g129
sg46
g131
sg47
Vhttps://api.cognitive.microsoft.com/api/v5/#WebPages.8
p134
ssg49
g134
sg50
Nsg51
g131
sbag1
(g2
g3
Ntp135
Rp136
(dp137
g7
VGuide to the ADA Standards - United States Access Board
p138
sg9
Vhttps://www.access-board.gov/.../guide-to-the-ada-standards
p139
sg11
Vhttps://www.bing.com/cr?IG=B71903F2F1A540BEBDE0C52361577084&CID=1AF5A19B6C2C68CB08D9ABC46DC56963&rd=1&h=XfriMCAtU8LBFvXPHBSZ4FfpXhlyRuji7BpL-h5a9Kk&v=1&r=https%3a%2f%2fwww.access-board.gov%2fguidelines-and-standards%2fbuildings-and-sites%2fabout-the-ada-standards%2fguide-to-the-ada-standards&p=DevEx,5244.1
p140
sg13
g138
sg14
V1331 F Street NW, Suite 1000; Washington, DC 20004-1111; Voice: (202) 272-0080 or (800) 872-2253; TTY: (202) 272-0082 or (800) 993-2822; Fax: (202) 272-0081
p141
sg16
(dp142
g26
g138
sg24
g140
sg43
V2017-04-02T14:17:00
p143
sg45
g139
sg46
g141
sg47
Vhttps://api.cognitive.microsoft.com/api/v5/#WebPages.9
p144
ssg49
g144
sg50
Nsg51
g141
sbag1
(g2
g3
Ntp145
Rp146
(dp147
g7
VWheelchair accessibility - Planckendael
p148
sg9
Vhttps://www.planckendael.be/en/wheelchair-accessibility
p149
sg11
Vhttps://www.bing.com/cr?IG=B71903F2F1A540BEBDE0C52361577084&CID=1AF5A19B6C2C68CB08D9ABC46DC56963&rd=1&h=AWCbejWbYlrf1NdCvWfhzDt6MMc_py21PyDtLEk_974&v=1&r=https%3a%2f%2fwww.planckendael.be%2fen%2fwheelchair-accessibility%2f&p=DevEx,5256.1
p150
sg13
g148
sg14
VEven in a wheelchair you will experience an exciting journey of discovery. At Planckendael we do our utmost to offer everyone an enjoyable and exciting day.
p151
sg16
(dp152
g26
g148
sg24
g150
sg43
V2017-04-06T14:11:00
p153
sg45
g149
sg46
g151
sg47
Vhttps://api.cognitive.microsoft.com/api/v5/#WebPages.10
p154
ssg49
g154
sg50
Nsg51
g151
sbag1
(g2
g3
Ntp155
Rp156
(dp157
g7
VWheelchair Accessibility - The Lights of Christmas
p158
sg9
Vhttps://www.thelightsofchristmas.com/wheelchair-accessibility
p159
sg11
Vhttps://www.bing.com/cr?IG=B71903F2F1A540BEBDE0C52361577084&CID=1AF5A19B6C2C68CB08D9ABC46DC56963&rd=1&h=6xfdLrBMfDcCn8DmUewBBAKjso5nieZh-mmVAs4I1I4&v=1&r=https%3a%2f%2fwww.thelightsofchristmas.com%2fwheelchair-accessibility&p=DevEx,5269.1
p160
sg13
g158
sg14
VDazzling light displays, the smell of fresh hot donuts, the holiday sounds of carolers, and so much more make The Lights of Christmas the perfect holiday destination.
p161
sg16
(dp162
g26
g158
sg24
g160
sg43
V2017-03-08T13:03:00
p163
sg45
g159
sg46
g161
sg47
Vhttps://api.cognitive.microsoft.com/api/v5/#WebPages.11
p164
ssg49
g164
sg50
Nsg51
g161
sbag1
(g2
g3
Ntp165
Rp166
(dp167
g7
VWheelchair Accessible Vans | BraunAbility | Ride-Away
p168
sg9
Vhttps://www.ride-away.com/.../wheelchair-accessible-vans
p169
sg11
Vhttps://www.bing.com/cr?IG=B71903F2F1A540BEBDE0C52361577084&CID=1AF5A19B6C2C68CB08D9ABC46DC56963&rd=1&h=Svd95XUXrYfPe0XFdiev_BQKs_EgnkVkzjkeajqCDbk&v=1&r=https%3a%2f%2fwww.ride-away.com%2fresearch%2fmobility-products%2fwheelchair-accessible-vans%2f&p=DevEx,5285.1
p170
sg13
g168
sg14
VRide-Away Wheelchair Accessible Vans. When you first decide to purchase a wheelchair van, one of the first options you'll come across is a minivan.
p171
sg16
(dp172
g26
g168
sg24
g170
sg43
V2017-03-30T19:51:00
p173
sg45
g169
sg46
g171
sg47
Vhttps://api.cognitive.microsoft.com/api/v5/#WebPages.12
p174
ssg49
g174
sg50
Nsg51
g171
sbag1
(g2
g3
Ntp175
Rp176
(dp177
g7
VWheelchair Accessible | Florida State Parks
p178
sg9
Vhttps://www.floridastateparks.org/.../wheelchair-accessible
p179
sg11
Vhttps://www.bing.com/cr?IG=B71903F2F1A540BEBDE0C52361577084&CID=1AF5A19B6C2C68CB08D9ABC46DC56963&rd=1&h=CTiuiPAWLB2BRLPcXrnHcmHY_fAqGZTP2gLfbl6Ifpw&v=1&r=https%3a%2f%2fwww.floridastateparks.org%2fparks-activities%2fwheelchair-accessible&p=DevEx,5298.1
p180
sg13
g178
sg14
VThe 5 mile long 12&rsquo; wide paved Withlacoochee Bay Trail running westward from US 19 to the Gulf-of-Mexico is wheelchair accessible via the various parking areas located along its length.
p181
sg16
(dp182
g26
g178
sg24
g180
sg43
V2017-03-28T23:49:00
p183
sg45
g179
sg46
g181
sg47
Vhttps://api.cognitive.microsoft.com/api/v5/#WebPages.13
p184
ssg49
g184
sg50
Nsg51
g181
sbag1
(g2
g3
Ntp185
Rp186
(dp187
g7
VWheelchair accessible? Just ask Google Maps - CSMonitor.com
p188
sg9
Vwww.csmonitor.com/USA/Society/2016/1219/Wheelchair-accessible-Just...
p189
sg11
Vhttp://www.bing.com/cr?IG=B71903F2F1A540BEBDE0C52361577084&CID=1AF5A19B6C2C68CB08D9ABC46DC56963&rd=1&h=Zpsd2577WNLhPOXuw3yl6hSxuGQ8ZV0VuhopGfaroUw&v=1&r=http%3a%2f%2fwww.csmonitor.com%2fUSA%2fSociety%2f2016%2f1219%2fWheelchair-accessible-Just-ask-Google-Maps&p=DevEx,5315.1
p190
sg13
g188
sg14
VUSA Society First Look Wheelchair accessible? Just ask Google Maps progress watch. Google Maps now has a feature that lists the wheelchair accessibility of a place, and relies on users to crowdsource the information.
p191
sg16
(dp192
g26
g188
sg24
g190
sg43
V2017-03-28T17:24:00
p193
sg45
g189
sg46
g191
sg47
Vhttps://api.cognitive.microsoft.com/api/v5/#WebPages.14
p194
ssg49
g194
sg50
Nsg51
g191
sbag1
(g2
g3
Ntp195
Rp196
(dp197
g7
VADA and Wheelchair Accessibility - TARC
p198
sg9
Vhttps://www.ridetarc.org/accessibility/ada-and-wheelchair...
p199
sg11
Vhttps://www.bing.com/cr?IG=B71903F2F1A540BEBDE0C52361577084&CID=1AF5A19B6C2C68CB08D9ABC46DC56963&rd=1&h=ozZZsAZhvu1w1yKd5jlGiV6GgX0pe_6PbVl27IUiNM4&v=1&r=https%3a%2f%2fwww.ridetarc.org%2faccessibility%2fada-and-wheelchair-accessibility&p=DevEx,5326.1
p200
sg13
g198
sg14
VAll TARC routes are wheelchair accessible. The front of every TARC bus has priority seating for seniors and citizens with disabilities. All TARC routes feature buses with either lift mechanisms or ramps to assist customers in wheelchairs or with other mobility impairments.
p201
sg16
(dp202
g26
g198
sg24
g200
sg43
V2017-03-29T22:47:00
p203
sg45
g199
sg46
g201
sg47
Vhttps://api.cognitive.microsoft.com/api/v5/#WebPages.15
p204
ssg49
g204
sg50
Nsg51
g201
sbag1
(g2
g3
Ntp205
Rp206
(dp207
g7
VCustomers-with-Disabilities : Greyhound
p208
sg9
Vhttps://www.greyhound.com/.../travel-info/customers-with-disabilities
p209
sg11
Vhttps://www.bing.com/cr?IG=B71903F2F1A540BEBDE0C52361577084&CID=1AF5A19B6C2C68CB08D9ABC46DC56963&rd=1&h=2aD3YVg-_Yp8U4Bdt-Rk-b5ATS-hctUUyyHPUvctaRY&v=1&r=https%3a%2f%2fwww.greyhound.com%2fen%2fhelp-and-info%2ftravel-info%2fcustomers-with-disabilities&p=DevEx,5339.1
p210
sg13
g208
sg14
VIf you don\u2019t want to travel seated in your wheelchair or mobility scooter, we can store it for you in the baggage compartment. Mobility aids such as canes and walkers can travel inside the bus with you but only if they can be safely stowed in the overhead compartment because.
p211
sg16
(dp212
g26
g208
sg24
g210
sg43
V2017-03-31T02:06:00
p213
sg45
g209
sg46
g211
sg47
Vhttps://api.cognitive.microsoft.com/api/v5/#WebPages.16
p214
ssg49
g214
sg50
Nsg51
g211
sbag1
(g2
g3
Ntp215
Rp216
(dp217
g7
VWheelchair Accessible | NMEDA
p218
sg9
Vwww.nmeda.com/category/wheelchair-accessible
p219
sg11
Vhttp://www.bing.com/cr?IG=B71903F2F1A540BEBDE0C52361577084&CID=1AF5A19B6C2C68CB08D9ABC46DC56963&rd=1&h=z58-hDArnAVpGQND3PPnLz1rLoCChwisXQ0U8Pd-sko&v=1&r=http%3a%2f%2fwww.nmeda.com%2fcategory%2fwheelchair-accessible%2f&p=DevEx,5354.1
p220
sg13
g218
sg14
VLook into wheelchair accessible vehicles and handicap vehicles to be on track toward independence. Read our blog to find help selecting an accessible vehicle.
p221
sg16
(dp222
g26
g218
sg24
g220
sg43
V2017-03-17T12:57:00
p223
sg45
g219
sg46
g221
sg47
Vhttps://api.cognitive.microsoft.com/api/v5/#WebPages.17
p224
ssg49
g224
sg50
Nsg51
g221
sbag1
(g2
g3
Ntp225
Rp226
(dp227
g7
VWheelchair accessible taxis | Transport for NSW - Corporate
p228
sg9
Vhttps://www.transport.nsw.gov.au/.../taxis/wheelchair-accessible-taxis
p229
sg11
Vhttps://www.bing.com/cr?IG=B71903F2F1A540BEBDE0C52361577084&CID=1AF5A19B6C2C68CB08D9ABC46DC56963&rd=1&h=8wyF5pydtDiMUzYwEOLOONJUbcr-VO1NN_JEyDDmRJk&v=1&r=https%3a%2f%2fwww.transport.nsw.gov.au%2foperators%2ftaxis%2fwheelchair-accessible-taxis&p=DevEx,5369.1
p230
sg13
g228
sg14
VA wheelchair accessible taxi (WAT) is a vehicle that has been specially modified to safely accommodate at least one and up to three wheelchairs.
p231
sg16
(dp232
g26
g228
sg24
g230
sg43
V2017-03-31T01:33:00
p233
sg45
g229
sg46
g231
sg47
Vhttps://api.cognitive.microsoft.com/api/v5/#WebPages.18
p234
ssg49
g234
sg50
Nsg51
g231
sbag1
(g2
g3
Ntp235
Rp236
(dp237
g7
VWheelchair Accessible Vehicles | FindaWAV.com
p238
sg9
Vwww.findawav.com
p239
sg11
Vhttp://www.bing.com/cr?IG=B71903F2F1A540BEBDE0C52361577084&CID=1AF5A19B6C2C68CB08D9ABC46DC56963&rd=1&h=FkRF_YvxFOX1e7XqRzZNSDlRJboXCpQ2M8_8apVOb1E&v=1&r=http%3a%2f%2fwww.findawav.com%2f&p=DevEx,5383.1
p240
sg13
g238
sg14
VWheelchair accessible vehicles make travelling easier \u2013 you can access the vehicle via a ramp or lift and remain seated in your wheelchair as a passenger.
p241
sg16
(dp242
g26
g238
sg24
g240
sg43
V2017-04-02T10:40:00
p243
sg45
g239
sg46
g241
sg47
Vhttps://api.cognitive.microsoft.com/api/v5/#WebPages.19
p244
ssg49
g244
sg50
Nsg51
g241
sbag1
(g2
g3
Ntp245
Rp246
(dp247
g7
VWheelchair Accessible Rentals | Ride-Away
p248
sg9
Vhttps://www.ride-away.com/wheelchair-accessible-rentals
p249
sg11
Vhttps://www.bing.com/cr?IG=B71903F2F1A540BEBDE0C52361577084&CID=1AF5A19B6C2C68CB08D9ABC46DC56963&rd=1&h=lidIGzrWEBqVq2v9TjU1-2Nq5R5ZWCG4zfCspESoqco&v=1&r=https%3a%2f%2fwww.ride-away.com%2fwheelchair-accessible-rentals%2f&p=DevEx,5397.1
p250
sg13
g248
sg14
VRide-Away's wheelchair accessible rentals are available throughout the East Coast on a daily, weekly or monthly basis.
p251
sg16
(dp252
g26
g248
sg24
g250
sg43
V2017-03-31T15:05:00
p253
sg45
g249
sg46
g251
sg47
Vhttps://api.cognitive.microsoft.com/api/v5/#WebPages.20
p254
ssg49
g254
sg50
Nsg51
g251
sbag1
(g2
g3
Ntp255
Rp256
(dp257
g7
VWheelchair Van Dealer Locator | Handicap Van Dealers | VMI
p258
sg9
Vhttps://www.vantagemobility.com/dealers
p259
sg11
Vhttps://www.bing.com/cr?IG=B71903F2F1A540BEBDE0C52361577084&CID=1AF5A19B6C2C68CB08D9ABC46DC56963&rd=1&h=G_zFlOeXi0Fc1tyufXfxOBU9eKwoejCNqJ1B5nGA_f8&v=1&r=https%3a%2f%2fwww.vantagemobility.com%2fdealers%2f&p=DevEx,5409.1
p260
sg13
g258
sg14
VFind Wheelchair Van Dealers Near You. VMI has selected the best mobility dealers in the country to assist our customers in finding the perfect wheelchair-accessible vehicles.
p261
sg16
(dp262
g26
g258
sg24
g260
sg43
V2017-04-02T02:26:00
p263
sg45
g259
sg46
g261
sg47
Vhttps://api.cognitive.microsoft.com/api/v5/#WebPages.21
p264
ssg49
g264
sg50
Nsg51
g261
sbag1
(g2
g3
Ntp265
Rp266
(dp267
g7
VADA Compliance & Accessibility | Phoenix Convention Center
p268
sg9
Vhttps://www.phoenixconventioncenter.com/ADA
p269
sg11
Vhttps://www.bing.com/cr?IG=B71903F2F1A540BEBDE0C52361577084&CID=1AF5A19B6C2C68CB08D9ABC46DC56963&rd=1&h=mrD6mDNLyG2XSM0MyilhdxoktYYPpek0TnfZlA4GKWg&v=1&r=https%3a%2f%2fwww.phoenixconventioncenter.com%2fADA&p=DevEx,5423.1
p270
sg13
g268
sg14
VThe Phoenix Convention Center is ADA Compliant and offers accessible facilities for meeting and event attendees with specials needs and service animals.
p271
sg16
(dp272
g26
g268
sg24
g270
sg43
V2017-04-03T04:56:00
p273
sg45
g269
sg46
g271
sg47
Vhttps://api.cognitive.microsoft.com/api/v5/#WebPages.22
p274
ssg49
g274
sg50
Nsg51
g271
sbag1
(g2
g3
Ntp275
Rp276
(dp277
g7
VAccessibility | WMATA
p278
sg9
Vhttps://www.wmata.com/service/accessibility
p279
sg11
Vhttps://www.bing.com/cr?IG=B71903F2F1A540BEBDE0C52361577084&CID=1AF5A19B6C2C68CB08D9ABC46DC56963&rd=1&h=z3vxE1rVpxURgh9dmpIHBGGFb1hVz7Ihi395Xf3yvNg&v=1&r=https%3a%2f%2fwww.wmata.com%2fservice%2faccessibility%2f&p=DevEx,5434.1
p280
sg13
g278
sg14
VMetrorail Accessibility Features. All Metrorail stations and rail cars are accessible. Our stations feature accessible priority parking near station entrances, information on station pylons in Braille and raised alphabet, ... ADA. Accessible transportation options for people with disabilities. Metro Accessibility Features. Watch an overview of Metro accessibility features. MetroAccess Door-to-Door Service. Learn how to use the MetroAccess Paratransit service.
p281
sg16
(dp282
g26
g278
sg24
g280
sg43
V2017-04-01T14:00:00
p283
sg45
g279
sg46
g281
sg47
Vhttps://api.cognitive.microsoft.com/api/v5/#WebPages.23
p284
ssg49
g284
sg50
Nsg51
g281
sbag1
(g2
g3
Ntp285
Rp286
(dp287
g7
VAccessibility - Adobe Systems
p288
sg9
Vwww.adobe.com/accessibility.html
p289
sg11
Vhttp://www.bing.com/cr?IG=B71903F2F1A540BEBDE0C52361577084&CID=1AF5A19B6C2C68CB08D9ABC46DC56963&rd=1&h=i3A8yheWD3K5CmaRHu9S-StCmWEbxrdz3f5a_t7eRsk&v=1&r=http%3a%2f%2fwww.adobe.com%2faccessibility.html&p=DevEx,5447.1
p290
sg13
g288
sg14
VAdobe is an industry leader in accessibility and supports the creation of outstanding web experiences by encouraging developers to produce rich, engaging content that is accessible to all.
p291
sg16
(dp292
g26
g288
sg24
g290
sg43
V2017-04-02T03:28:00
p293
sg45
g289
sg46
g291
sg47
Vhttps://api.cognitive.microsoft.com/api/v5/#WebPages.24
p294
ssg49
g294
sg50
Nsg51
g291
sbag1
(g2
g3
Ntp295
Rp296
(dp297
g7
VADA Accessibility | Discover
p298
sg9
Vhttps://www.discover.com/accessibility
p299
sg11
Vhttps://www.bing.com/cr?IG=B71903F2F1A540BEBDE0C52361577084&CID=1AF5A19B6C2C68CB08D9ABC46DC56963&rd=1&h=DiykOnZfXdOLKuhH_reFxWi4gefanz_we_J4LUxaNcI&v=1&r=https%3a%2f%2fwww.discover.com%2faccessibility%2f&p=DevEx,5458.1
p300
sg13
g298
sg14
VWeb accessibility for all. Discover is commited to creating a seamless online experience for everybody.
p301
sg16
(dp302
g26
g298
sg24
g300
sg43
V2017-03-31T05:02:00
p303
sg45
g299
sg46
g301
sg47
Vhttps://api.cognitive.microsoft.com/api/v5/#WebPages.25
p304
ssg49
g304
sg50
Nsg51
g301
sbag1
(g2
g3
Ntp305
Rp306
(dp307
g7
VWheelchair, Disability, Medical Transportation Services Brampton
p308
sg9
Vwww.accessiblewheelchairtaxiservice.com
p309
sg11
Vhttp://www.bing.com/cr?IG=B71903F2F1A540BEBDE0C52361577084&CID=1AF5A19B6C2C68CB08D9ABC46DC56963&rd=1&h=Kx1qzg1wrREZwbWtE_-sPtaX7XJD11LS4wkFchc4mgo&v=1&r=http%3a%2f%2fwww.accessiblewheelchairtaxiservice.com%2f&p=DevEx,5470.1
p310
sg13
g308
sg14
VAccessible Vehicle Services Inc. provide wheelchair, disability and medical transportation services. We offer wide range of accessible vans in Brampton.
p311
sg16
(dp312
g26
g308
sg24
g310
sg43
V2017-03-30T11:21:00
p313
sg45
g309
sg46
g311
sg47
Vhttps://api.cognitive.microsoft.com/api/v5/#WebPages.26
p314
ssg49
g314
sg50
Nsg51
g311
sbag1
(g2
g3
Ntp315
Rp316
(dp317
g7
VADA Construction Guidelines for Accesible Bathrooms
p318
sg9
Vhttps://www.thebalance.com/ada-construction-guidelines-for...
p319
sg11
Vhttps://www.bing.com/cr?IG=B71903F2F1A540BEBDE0C52361577084&CID=1AF5A19B6C2C68CB08D9ABC46DC56963&rd=1&h=Yy0CthOfNdjS4_1nhCjoXUhRv8OPeRFPKGjPYVPxfMQ&v=1&r=https%3a%2f%2fwww.thebalance.com%2fada-construction-guidelines-for-accesible-bathrooms-844778&p=DevEx,5483.1
p320
sg13
g318
sg14
VADA (American with Disabilities Act) guidelines and recommendations that regulate the construction of accessible or handicapped toilet and bathrooms.
p321
sg16
(dp322
g26
g318
sg24
g320
sg43
V2017-04-02T05:15:00
p323
sg45
g319
sg46
g321
sg47
Vhttps://api.cognitive.microsoft.com/api/v5/#WebPages.27
p324
ssg49
g324
sg50
Nsg51
g321
sbag1
(g2
g3
Ntp325
Rp326
(dp327
g7
VADA ACCESSIBILITY CHECKLIST FOR EXISTING FACILITIES
p328
sg9
Vwww.emblemhealth.com/~/media/Files/PDF/adachecklist.pdf
p329
sg11
Vhttp://www.bing.com/cr?IG=B71903F2F1A540BEBDE0C52361577084&CID=1AF5A19B6C2C68CB08D9ABC46DC56963&rd=1&h=mvEXP1d_gVmIw1WWjH1vHGoH5r8T8C2pvDxIYgYzfA4&v=1&r=http%3a%2f%2fwww.emblemhealth.com%2f%7e%2fmedia%2fFiles%2fPDF%2fadachecklist.pdf&p=DevEx,5495.1
p330
sg13
g328
sg14
VADA ACCESSIBILITY CHECKLIST FOR EXISTING FACILITIES Purpose of Checklist Section 504 of the Rehabilitation Act of 1973 and Title II of the Americans with Disabilities Act of 1990
p331
sg16
(dp332
g26
g328
sg24
g330
sg43
V2017-03-29T05:59:00
p333
sg45
g329
sg46
g331
sg47
Vhttps://api.cognitive.microsoft.com/api/v5/#WebPages.28
p334
ssg49
g334
sg50
Nsg51
g331
sbag1
(g2
g3
Ntp335
Rp336
(dp337
g7
VADA Accessibility | Massage Envy
p338
sg9
Vhttps://www.massageenvy.com/accessibility
p339
sg11
Vhttps://www.bing.com/cr?IG=B71903F2F1A540BEBDE0C52361577084&CID=1AF5A19B6C2C68CB08D9ABC46DC56963&rd=1&h=cn7tpbz-IxphQaUqUhx8qbZeBXPCHdIWiPaE9cDaH6M&v=1&r=https%3a%2f%2fwww.massageenvy.com%2faccessibility%2f&p=DevEx,5506.1
p340
sg13
g338
sg14
VMassage Envy. ADA Accessibility Our Commitment. Massage Envy is committed to facilitating the accessibility and usability of its website, www.massageenvy.com, for all people.
p341
sg16
(dp342
g26
g338
sg24
g340
sg43
V2017-03-31T06:58:00
p343
sg45
g339
sg46
g341
sg47
Vhttps://api.cognitive.microsoft.com/api/v5/#WebPages.29
p344
ssg49
g344
sg50
Nsg51
g341
sbag1
(g2
g3
Ntp345
Rp346
(dp347
g7
VAccessibility - W3C
p348
sg9
Vwww.w3.org/standards/webdesign/accessibility
p349
sg11
Vhttp://www.bing.com/cr?IG=B71903F2F1A540BEBDE0C52361577084&CID=1AF5A19B6C2C68CB08D9ABC46DC56963&rd=1&h=OTR6_hVWGYLKiieAu4hye-yb-sYp5Iw8G8nEJS94oWM&v=1&r=http%3a%2f%2fwww.w3.org%2fstandards%2fwebdesign%2faccessibility&p=DevEx,5519.1
p350
sg13
g348
sg14
VAccessibility is essential for developers and organizations that want to create high quality websites and web tools, and not exclude people from using their products and services. Web Accessibility Initiative (WAI) at W3C The ...
p351
sg16
(dp352
g28
(lp353
(dp354
g26
VAccessibility
p355
sasg26
g348
sg24
g350
sg43
V2017-03-27T05:31:00
p356
sg45
g349
sg46
g351
sg47
Vhttps://api.cognitive.microsoft.com/api/v5/#WebPages.30
p357
ssg49
g357
sg50
Nsg51
g351
sbag1
(g2
g3
Ntp358
Rp359
(dp360
g7
VWheelchair Accessible Conversions - Vehicle Access Solutions
p361
sg9
Vwww.vehicleaccesssolutions.com.au/accessories/wheelchair-accessible
p362
sg11
Vhttp://www.bing.com/cr?IG=B71903F2F1A540BEBDE0C52361577084&CID=1AF5A19B6C2C68CB08D9ABC46DC56963&rd=1&h=usqloRKwXoXacgjrTD9fL6sJ4t0jizZRBmX5VnC7vsQ&v=1&r=http%3a%2f%2fwww.vehicleaccesssolutions.com.au%2faccessories%2fwheelchair-accessible%2f&p=DevEx,5532.1
p363
sg13
g361
sg14
VVehicle Access Solutions is Australia\u2019s trusted provider of wheelchair accessible conversions and modifications accessories for all vehicles including vans. We
p364
sg16
(dp365
g26
g361
sg24
g363
sg43
V2017-03-26T22:15:00
p366
sg45
g362
sg46
g364
sg47
Vhttps://api.cognitive.microsoft.com/api/v5/#WebPages.31
p367
ssg49
g367
sg50
Nsg51
g364
sbag1
(g2
g3
Ntp368
Rp369
(dp370
g7
VAeronautical Development Agency - Official Site
p371
sg9
Vhttps://www.ada.gov.in
p372
sg11
Vhttps://www.bing.com/cr?IG=B71903F2F1A540BEBDE0C52361577084&CID=1AF5A19B6C2C68CB08D9ABC46DC56963&rd=1&h=UFFckhknpCo69MPVQvpJh-3J5muI2kSANkcuHqrq9jA&v=1&r=https%3a%2f%2fwww.ada.gov.in%2f&p=DevEx,5545.1
p373
sg13
g371
sg14
VADA, Department of Defence R&D is the nodal agency for the design & development of LCA. HAL is the principal partner in LCA Programme with participation of DRDO & CSIR Laboratories, Public & Private sector industries and academic institutions. 1. Applications are invited for the post of Flight Test Engineer - II, Last Date is 17 April 2017 2.
p374
sg16
(dp375
g26
g371
sg24
g373
sg43
V2017-04-02T06:34:00
p376
sg45
g372
sg46
g374
sg47
Vhttps://api.cognitive.microsoft.com/api/v5/#WebPages.32
p377
ssg49
g377
sg50
Nsg51
g374
sbag1
(g2
g3
Ntp378
Rp379
(dp380
g7
VWheelchair Accessible Public Group | Facebook
p381
sg9
Vhttps://www.facebook.com/groups/992752067422457
p382
sg11
Vhttps://www.bing.com/cr?IG=B71903F2F1A540BEBDE0C52361577084&CID=1AF5A19B6C2C68CB08D9ABC46DC56963&rd=1&h=6ibg-e40vkFlJwHqL57eQv0SHdU3Wcw6hiwC3bKEB6w&v=1&r=https%3a%2f%2fwww.facebook.com%2fgroups%2f992752067422457%2f&p=DevEx,5558.1
p383
sg13
g381
sg14
VWheelchair Accessible has 299 members. Introduction and Group Rules please read Introduction: This Group is here to help peepal in a Wheelchair to...
p384
sg16
(dp385
g26
g381
sg24
g383
sg43
V2017-03-30T05:17:00
p386
sg45
g382
sg46
g384
sg47
Vhttps://api.cognitive.microsoft.com/api/v5/#WebPages.33
p387
ssg49
g387
sg50
Nsg51
g384
sbag1
(g2
g3
Ntp388
Rp389
(dp390
g7
VWheelchair Accessible Holiday Properties | Yes4Access
p391
sg9
Vwww.yes4access.com
p392
sg11
Vhttp://www.bing.com/cr?IG=B71903F2F1A540BEBDE0C52361577084&CID=1AF5A19B6C2C68CB08D9ABC46DC56963&rd=1&h=lkR97rw-dT4lpN2er4dvtKe8wYD0Gsiw4kyTOj58SgE&v=1&r=http%3a%2f%2fwww.yes4access.com%2f&p=DevEx,5572.1
p393
sg13
g391
sg14
VWheelchair accessible holidays with Yes4access.com. Yes4access.com is a directory of wheelchair accessible holiday properties, designed to make travel booking easy for disabled people with mobility impairments.
p394
sg16
(dp395
g26
g391
sg24
g393
sg43
V2017-03-31T21:03:00
p396
sg45
g392
sg46
g394
sg47
Vhttps://api.cognitive.microsoft.com/api/v5/#WebPages.34
p397
ssg49
g397
sg50
Nsg51
g394
sbag1
(g2
g3
Ntp398
Rp399
(dp400
g7
VWheelchair Accessible Vehicles overview | Motability Scheme
p401
sg9
Vwww.motability.co.uk/.../wheelchair-accessible-vehicles-overview
p402
sg11
Vhttp://www.bing.com/cr?IG=B71903F2F1A540BEBDE0C52361577084&CID=1AF5A19B6C2C68CB08D9ABC46DC56963&rd=1&h=NVnBvXNYc4mV6p3A3ZSzNgKzbkX11cQz4ZOrS0bsP8U&v=1&r=http%3a%2f%2fwww.motability.co.uk%2fcars-scooters-and-powerchairs%2fwheelchair-accessible-vehicles-overview%2f&p=DevEx,5584.1
p403
sg13
g401
sg14
VA Wheelchair Accessible Vehicle (WAV) is a standard vehicle that has been converted to allow wheelchair access. Find out which WAV is right for you.
p404
sg16
(dp405
g26
g401
sg24
g403
sg43
V2017-04-02T00:26:00
p406
sg45
g402
sg46
g404
sg47
Vhttps://api.cognitive.microsoft.com/api/v5/#WebPages.35
p407
ssg49
g407
sg50
Nsg51
g404
sbag1
(g2
g3
Ntp408
Rp409
(dp410
g7
Vwheelchair-accessible - disabilitynewsservice.com
p411
sg9
Vhttps://www.disabilitynewsservice.com/tag/wheelchair-accessible
p412
sg11
Vhttps://www.bing.com/cr?IG=B71903F2F1A540BEBDE0C52361577084&CID=1AF5A19B6C2C68CB08D9ABC46DC56963&rd=1&h=jWHkIP12GkhtCOT6nUnI6wZCHsQ-q1pp4d_gQ0HyX-k&v=1&r=https%3a%2f%2fwww.disabilitynewsservice.com%2ftag%2fwheelchair-accessible%2f&p=DevEx,5595.1
p413
sg13
g411
sg14
VLong-awaited new laws that ban taxis and private hire vehicles from discriminating against wheelchair-users may not provide as much protection as had been hoped when they come into force today, a disabled campaigner has revealed.
p414
sg16
(dp415
g26
g411
sg24
g413
sg43
V2017-04-06T22:29:00
p416
sg45
g412
sg46
g414
sg47
Vhttps://api.cognitive.microsoft.com/api/v5/#WebPages.36
p417
ssg49
g417
sg50
Nsg51
g414
sbag1
(g2
g3
Ntp418
Rp419
(dp420
g7
VADA Wheelchair Access for Buildings
p421
sg9
Vaccessadvocates.com/ada-wheelchair-access-for-buildings
p422
sg11
Vhttp://www.bing.com/cr?IG=B71903F2F1A540BEBDE0C52361577084&CID=1AF5A19B6C2C68CB08D9ABC46DC56963&rd=1&h=HIduYptQk-v3ArNeFX37l03OssDNi0RTBHppI4pJZpQ&v=1&r=http%3a%2f%2faccessadvocates.com%2fada-wheelchair-access-for-buildings%2f&p=DevEx,5609.1
p423
sg13
g421
sg14
VThe Americans With Disabilities Act requires wheelchair access be made available for new buildings in the process of being built. This can often be a burden for new business owners, but it is required by law and a business owner can be sued for not abiding by the ADA. The ADA is a civil rights la
p424
sg16
(dp425
g26
g421
sg24
g423
sg43
V2017-03-30T00:53:00
p426
sg45
g422
sg46
g424
sg47
Vhttps://api.cognitive.microsoft.com/api/v5/#WebPages.37
p427
ssg49
g427
sg50
Nsg51
g424
sbag1
(g2
g3
Ntp428
Rp429
(dp430
g7
VAccessibility (ADA) \u2013 Raymond James Stadium
p431
sg9
Vraymondjamesstadium.com/accessibility-ada
p432
sg11
Vhttp://www.bing.com/cr?IG=B71903F2F1A540BEBDE0C52361577084&CID=1AF5A19B6C2C68CB08D9ABC46DC56963&rd=1&h=kooWHTu8tj0NNAZc8HoZ-TsasE--X8M1fOfHgplYdK8&v=1&r=http%3a%2f%2fraymondjamesstadium.com%2faccessibility-ada%2f&p=DevEx,5620.1
p433
sg13
g431
sg14
VRaymond James Stadium was designed to offer an exciting, comfortable experience for everyone. Parking, seating, concessions, restrooms, water fountains and signage follow guidelines of the Americans with Disabilities Act.
p434
sg16
(dp435
g26
g431
sg24
g433
sg43
V2017-04-03T01:22:00
p436
sg45
g432
sg46
g434
sg47
Vhttps://api.cognitive.microsoft.com/api/v5/#WebPages.38
p437
ssg49
g437
sg50
Nsg51
g434
sbag1
(g2
g3
Ntp438
Rp439
(dp440
g7
VADA Accessibility | Honda Center
p441
sg9
Vwww.hondacenter.com/arena-info/ada-accessibility
p442
sg11
Vhttp://www.bing.com/cr?IG=B71903F2F1A540BEBDE0C52361577084&CID=1AF5A19B6C2C68CB08D9ABC46DC56963&rd=1&h=bqADBxrSEOTYPvVizHXbFIbbrJo9dYoFypJTwrl3lXg&v=1&r=http%3a%2f%2fwww.hondacenter.com%2farena-info%2fada-accessibility%2f&p=DevEx,5632.1
p443
sg13
g441
sg14
VHonda Center is committed to compliance with the ADA and will ensure that it offers compliant access to guests with disabilities. Guests with disabilities will not be discriminated against in any program or activity conducted at Honda Center, nor will any individual be discriminated against because of his or her association with a person with a Disability.
p444
sg16
(dp445
g26
g441
sg24
g443
sg43
V2017-04-02T19:59:00
p446
sg45
g442
sg46
g444
sg47
Vhttps://api.cognitive.microsoft.com/api/v5/#WebPages.39
p447
ssg49
g447
sg50
Nsg51
g444
sbag1
(g2
g3
Ntp448
Rp449
(dp450
g7
VTips on How to Build an Accessible House
p451
sg9
Vweb.ics.purdue.edu/~bsd/building.html
p452
sg11
Vhttp://www.bing.com/cr?IG=B71903F2F1A540BEBDE0C52361577084&CID=1AF5A19B6C2C68CB08D9ABC46DC56963&rd=1&h=alPP6R9eiqT9h_sKyG2m2J02-y_bC2WgZtEoO8MqYaQ&v=1&r=http%3a%2f%2fweb.ics.purdue.edu%2f%7ebsd%2fbuilding.html&p=DevEx,5645.1
p453
sg13
g451
sg14
VInsights in how I built an accessible home. Using building products and environmetal control devices to create home automation
p454
sg16
(dp455
g26
g451
sg24
g453
sg43
V2017-03-30T19:43:00
p456
sg45
g452
sg46
g454
sg47
Vhttps://api.cognitive.microsoft.com/api/v5/#WebPages.40
p457
ssg49
g457
sg50
Nsg51
g454
sbag1
(g2
g3
Ntp458
Rp459
(dp460
g7
VShinkansen Wheelchair Accessibility - Accessible Japan
p461
sg9
Vhttps://www.accessible-japan.com/shinkansen-wheelchair-accessibility
p462
sg11
Vhttps://www.bing.com/cr?IG=B71903F2F1A540BEBDE0C52361577084&CID=1AF5A19B6C2C68CB08D9ABC46DC56963&rd=1&h=Mux3dZ5K6OTVHLJ1n-c1ovN7yInQnjTGMUY2uU8EJvc&v=1&r=https%3a%2f%2fwww.accessible-japan.com%2fshinkansen-wheelchair-accessibility%2f&p=DevEx,5659.1
p463
sg13
g461
sg14
VThe Shinkansen, or Bullet Train, is practically a symbol of Japan. With great wheelchair accessibility, persons with disabilities can travel with ease.
p464
sg16
(dp465
g26
g461
sg24
g463
sg43
V2017-03-26T11:57:00
p466
sg45
g462
sg46
g464
sg47
Vhttps://api.cognitive.microsoft.com/api/v5/#WebPages.41
p467
ssg49
g467
sg50
Nsg51
g464
sbag1
(g2
g3
Ntp468
Rp469
(dp470
g7
VAccessibility - Apple
p471
sg9
Vwww.apple.com/accessibility
p472
sg11
Vhttp://www.bing.com/cr?IG=B71903F2F1A540BEBDE0C52361577084&CID=1AF5A19B6C2C68CB08D9ABC46DC56963&rd=1&h=8wP8yFFQETwVOe1ERnQUrz1DKP4vbbTgst9HgIXqh6E&v=1&r=http%3a%2f%2fwww.apple.com%2faccessibility%2f&p=DevEx,5673.1
p473
sg13
g471
sg14
VEvery Apple device is built with powerful assistive technology, making them accessible to everyone.
p474
sg16
(dp475
g26
g471
sg24
g473
sg43
V2017-04-01T13:20:00
p476
sg45
g472
sg46
g474
sg47
Vhttps://api.cognitive.microsoft.com/api/v5/#WebPages.42
p477
ssg49
g477
sg50
Nsg51
g474
sbag1
(g2
g3
Ntp478
Rp479
(dp480
g7
VWheelchair Accessible Holland Vacations - disabilitytravel.com
p481
sg9
Vwww.disabilitytravel.com/independent/accessible-holland-vacations.htm
p482
sg11
Vhttp://www.bing.com/cr?IG=B71903F2F1A540BEBDE0C52361577084&CID=1AF5A19B6C2C68CB08D9ABC46DC56963&rd=1&h=VFBOG28XVq-N0SeCkJvGFrdlDTga5HpziF8ufGQPeEo&v=1&r=http%3a%2f%2fwww.disabilitytravel.com%2findependent%2faccessible-holland-vacations.htm&p=DevEx,5685.1
p483
sg13
g481
sg14
VWheelchair accessible vacations and travel planning in Holland for slow walkers, wheelchair travelers, their family, and their friends.
p484
sg16
(dp485
g26
g481
sg24
g483
sg43
V2017-04-02T17:17:00
p486
sg45
g482
sg46
g484
sg47
Vhttps://api.cognitive.microsoft.com/api/v5/#WebPages.43
p487
ssg49
g487
sg50
Nsg51
g484
sbag1
(g2
g3
Ntp488
Rp489
(dp490
g7
VHow wheelchair accessible are Japanese cities? - Quora
p491
sg9
Vhttps://www.quora.com/How-wheelchair-accessible-are-Japanese-cities
p492
sg11
Vhttps://www.bing.com/cr?IG=B71903F2F1A540BEBDE0C52361577084&CID=1AF5A19B6C2C68CB08D9ABC46DC56963&rd=1&h=AvGSJK081CytGWj6JzNYnflTwJJWz_mlmqaQgtNENWE&v=1&r=https%3a%2f%2fwww.quora.com%2fHow-wheelchair-accessible-are-Japanese-cities&p=DevEx,5697.1
p493
sg13
g491
sg14
VThe short answer is "not very, but it's improving". For people that are used to ADA-equipped facilities in the US, even big cities like Tokyo might seem tough to deal with. I would argue that Tokyo and other major cities are more visually impaired accessible than wheelchair accessible, given Tokyo's
p494
sg16
(dp495
g26
g491
sg24
g493
sg43
V2017-03-17T16:13:00
p496
sg45
g492
sg46
g494
sg47
Vhttps://api.cognitive.microsoft.com/api/v5/#WebPages.44
p497
ssg49
g497
sg50
Nsg51
g494
sbag1
(g2
g3
Ntp498
Rp499
(dp500
g7
VeSSENTIAL Accessibility: A Web Accessibility Solution
p501
sg9
Vwww.essentialaccessibility.com
p502
sg11
Vhttp://www.bing.com/cr?IG=B71903F2F1A540BEBDE0C52361577084&CID=1AF5A19B6C2C68CB08D9ABC46DC56963&rd=1&h=L2Ngf7kIBsQSk63ebiur05_7Uj7cLCTIe2bnMZBzWZQ&v=1&r=http%3a%2f%2fwww.essentialaccessibility.com%2f&p=DevEx,5710.1
p503
sg13
g501
sg14
VeSSENTIAL Accessibility's assistive technology & web accessibility evaluation services enhance the digital customer experience for people with disabilities.
p504
sg16
(dp505
g26
g501
sg24
g503
sg43
V2017-03-25T11:41:00
p506
sg45
g502
sg46
g504
sg47
Vhttps://api.cognitive.microsoft.com/api/v5/#WebPages.45
p507
ssg49
g507
sg50
Nsg51
g504
sbag1
(g2
g3
Ntp508
Rp509
(dp510
g7
VWheelchair Accessible Vehicles - BraunAbility
p511
sg9
Vhttps://www.braunability.com/wheelchair-vehicles
p512
sg11
Vhttps://www.bing.com/cr?IG=B71903F2F1A540BEBDE0C52361577084&CID=1AF5A19B6C2C68CB08D9ABC46DC56963&rd=1&h=llUDRuKrTUDvfRs5bym5ojQBJ-15aYUFIN2hAgiGfGg&v=1&r=https%3a%2f%2fwww.braunability.com%2fwheelchair-vehicles%2f&p=DevEx,5723.1
p513
sg13
g511
sg14
VBraunAbility offers the largest variety of wheelchair accessible vehicles. Browse by entry-type and features, OEM and certified pre-owned.
p514
sg16
(dp515
g26
g511
sg24
g513
sg43
V2017-03-28T01:10:00
p516
sg45
g512
sg46
g514
sg47
Vhttps://api.cognitive.microsoft.com/api/v5/#WebPages.46
p517
ssg49
g517
sg50
Nsg51
g514
sba.