(lp0
ccopy_reg
_reconstructor
p1
(cpy_ms_cognitive.py_ms_cognitive_search.py_ms_cognitive_web_search
WebResult
p2
c__builtin__
object
p3
Ntp4
Rp5
(dp6
S'name'
p7
VIran nuclear deal framework - Wikipedia
p8
sS'display_url'
p9
Vhttps://en.wikipedia.org/wiki/Iran_nuclear_deal_framework
p10
sS'url'
p11
Vhttps://www.bing.com/cr?IG=7C8576517779413F931533AAFCDE65DA&CID=01719958FE9C6A9D14769307FF756BE9&rd=1&h=-iORZFMVw1B7BNW2Q0Phu50AxeMDjHhDuyJdqsxfQOA&v=1&r=https%3a%2f%2fen.wikipedia.org%2fwiki%2fIran_nuclear_deal_framework&p=DevEx,5116.1
p12
sS'title'
p13
g8
sS'snippet'
p14
VThe Iran nuclear deal framework was a preliminary framework agreement reached in 2015 between the Islamic Republic of Iran and a group of world powers: the P5+1 (the permanent members of the United Nations Security Council\u2014the United States, the United Kingdom, Russia, France, and China\u2014plus Germany) and the European Union.
p15
sS'json'
p16
(dp17
VsnippetAttribution
p18
(dp19
VlicenseNotice
p20
VText under CC-BY-SA license
p21
sVlicense
p22
(dp23
Vurl
p24
Vhttp://www.bing.com/cr?IG=7C8576517779413F931533AAFCDE65DA&CID=01719958FE9C6A9D14769307FF756BE9&rd=1&h=tJYnHtBaEymlKo_fRl0wo_ZHu4dAaCwVMH_BvcixOgM&v=1&r=http%3a%2f%2fcreativecommons.org%2flicenses%2fby-sa%2f3.0%2f&p=DevEx,6042.1
p25
sVname
p26
VCC-BY-SA
p27
sssg26
g8
sg24
g12
sVdateLastCrawled
p28
V2017-03-30T12:37:00
p29
sVdisplayUrl
p30
g10
sVsnippet
p31
g15
sVid
p32
Vhttps://api.cognitive.microsoft.com/api/v5/#WebPages.0
p33
ssS'id'
p34
g33
sS'deep_links'
p35
NsS'description'
p36
g15
sbag1
(g2
g3
Ntp37
Rp38
(dp39
g7
VJoint Comprehensive Plan of Action - Wikipedia
p40
sg9
Vhttps://en.wikipedia.org/wiki/Joint_Comprehensive_Plan_of_Action
p41
sg11
Vhttps://www.bing.com/cr?IG=7C8576517779413F931533AAFCDE65DA&CID=01719958FE9C6A9D14769307FF756BE9&rd=1&h=4Q2eTj9criHuPpK0MiLA8bexGB65_KFKXPqbgb0UFz8&v=1&r=https%3a%2f%2fen.wikipedia.org%2fwiki%2fJoint_Comprehensive_Plan_of_Action&p=DevEx,5140.1
p42
sg13
g40
sg14
VThe Joint Comprehensive Plan of Action (JCPOA) (Persian: \u0628\u0631\u0646\u0627\u0645\u0647 \u062c\u0627\u0645\u0639 \u0627\u0642\u062f\u0627\u0645 \u0645\u0634\u062a\u0631\u06a9 \u200e, translit. barn\u0101me j\u0101me\u2018 eqd\u0101m moshtarak \u200e, acronym: \u0628\u0631\u062c\u0627\u0645 BARJAM), known commonly as the Iran deal or Iran nuclear deal, is an international agreement on the nuclear program of Iran reached in Vienna on 14 July 2015 between Iran, the P5+1 (the five permanent members of the United Nations Security Council\u2014China, France, Russia, United Kingdom, United States\u2014plus Germany ...
p43
sg16
(dp44
g18
(dp45
g20
VText under CC-BY-SA license
p46
sg22
(dp47
g24
Vhttp://www.bing.com/cr?IG=7C8576517779413F931533AAFCDE65DA&CID=01719958FE9C6A9D14769307FF756BE9&rd=1&h=tJYnHtBaEymlKo_fRl0wo_ZHu4dAaCwVMH_BvcixOgM&v=1&r=http%3a%2f%2fcreativecommons.org%2flicenses%2fby-sa%2f3.0%2f&p=DevEx,6044.1
p48
sg26
VCC-BY-SA
p49
sssg26
g40
sg24
g42
sg28
V2017-04-02T14:45:00
p50
sg30
g41
sg31
g43
sg32
Vhttps://api.cognitive.microsoft.com/api/v5/#WebPages.1
p51
ssg34
g51
sg35
Nsg36
g43
sbag1
(g2
g3
Ntp52
Rp53
(dp54
g7
VIran nuclear deal: Key details - BBC News
p55
sg9
Vwww.bbc.com/news/world-middle-east-33521655
p56
sg11
Vhttp://www.bing.com/cr?IG=7C8576517779413F931533AAFCDE65DA&CID=01719958FE9C6A9D14769307FF756BE9&rd=1&h=f7mZXHZyi_ZuLGYKkcItQXyv7U2gX94d0zOgxI_OYZM&v=1&r=http%3a%2f%2fwww.bbc.com%2fnews%2fworld-middle-east-33521655&p=DevEx,5155.1
p57
sg13
g55
sg14
VBBC News looks at the key details of the comprehensive nuclear deal agreed by Iran and the P5+1 group of world powers.
p58
sg16
(dp59
g26
g55
sg24
g57
sg28
V2017-04-03T13:48:00
p60
sg30
g56
sg31
g58
sg32
Vhttps://api.cognitive.microsoft.com/api/v5/#WebPages.2
p61
ssg34
g61
sg35
Nsg36
g58
sbag1
(g2
g3
Ntp62
Rp63
(dp64
g7
VThe Historic Deal that Will Prevent Iran from Acquiring a Nuclear ...
p65
sg9
Vhttps://obamawhitehouse.archives.gov/issues/foreign-policy/iran-deal
p66
sg11
Vhttps://www.bing.com/cr?IG=7C8576517779413F931533AAFCDE65DA&CID=01719958FE9C6A9D14769307FF756BE9&rd=1&h=tPhfH2JY2CEuxspCRpoUTwGIGmAQjMVoAlk5JXPpaEE&v=1&r=https%3a%2f%2fobamawhitehouse.archives.gov%2fissues%2fforeign-policy%2firan-deal&p=DevEx,5167.1
p67
sg13
g65
sg14
VThe Historic Deal that Will Prevent Iran from Acquiring a Nuclear Weapon How the U.S. and the international community will block all of Iran\u2019s pathways to a nuclear weapon
p68
sg16
(dp69
g26
g65
sg24
g67
sg28
V2017-03-31T04:31:00
p70
sg30
g66
sg31
g68
sg32
Vhttps://api.cognitive.microsoft.com/api/v5/#WebPages.3
p71
ssg34
g71
sg35
Nsg36
g68
sbag1
(g2
g3
Ntp72
Rp73
(dp74
g7
VIran Nuclear Agreement - Federation Of American Scientists
p75
sg9
Vhttps://fas.org/sgp/crs/nuke/R43333.pdf
p76
sg11
Vhttps://www.bing.com/cr?IG=7C8576517779413F931533AAFCDE65DA&CID=01719958FE9C6A9D14769307FF756BE9&rd=1&h=CnllK3hrgRmY3CCg15a3bXmrgHlYdsdIKeeEp4WTW54&v=1&r=https%3a%2f%2ffas.org%2fsgp%2fcrs%2fnuke%2fR43333.pdf&p=DevEx,5178.1
p77
sg13
g75
sg14
VIran Nuclear Agreement Congressional Research Service Summary On July 14, 2015, Iran and the six powers that negotiated with Iran about its nuclear program
p78
sg16
(dp79
g26
g75
sg24
g77
sg28
V2017-04-01T10:59:00
p80
sg30
g76
sg31
g78
sg32
Vhttps://api.cognitive.microsoft.com/api/v5/#WebPages.4
p81
ssg34
g81
sg35
Nsg36
g78
sbag1
(g2
g3
Ntp82
Rp83
(dp84
g7
VThe Iran Nuclear Deal \u2013 A Simple Guide - The New York Times
p85
sg9
Vhttps://www.nytimes.com/.../simple-guide-nuclear-talks-iran-us.html
p86
sg11
Vhttps://www.bing.com/cr?IG=7C8576517779413F931533AAFCDE65DA&CID=01719958FE9C6A9D14769307FF756BE9&rd=1&h=mwkolsNZku3-X-bKEhqzdiIuHhHJdEeNbe_t0MEtJdw&v=1&r=https%3a%2f%2fwww.nytimes.com%2finteractive%2f2015%2f03%2f31%2fworld%2fmiddleeast%2fsimple-guide-nuclear-talks-iran-us.html&p=DevEx,5189.1
p87
sg13
g85
sg14
VIran was constructing a nuclear reactor at Arak that would have used natural uranium to produce Pu-239, which can fuel bombs. The agreement Iran has agreed to redesign and rebuild the Arak reactor so it will not produce weapons-grade plutonium.
p88
sg16
(dp89
g26
g85
sg24
g87
sg28
V2017-03-30T00:43:00
p90
sg30
g86
sg31
g88
sg32
Vhttps://api.cognitive.microsoft.com/api/v5/#WebPages.5
p91
ssg34
g91
sg35
Nsg36
g88
sbag1
(g2
g3
Ntp92
Rp93
(dp94
g7
V6 Things You Should Know About The Iran Nuclear Deal : The Two-Way : NPR
p95
sg9
Vwww.npr.org/.../6-things-you-should-know-about-the-iran-nuclear-deal
p96
sg11
Vhttp://www.bing.com/cr?IG=7C8576517779413F931533AAFCDE65DA&CID=01719958FE9C6A9D14769307FF756BE9&rd=1&h=-PdgPoGp6lOZJvZTZUxVQVc5lxbbnByjpgZnnLTPuh0&v=1&r=http%3a%2f%2fwww.npr.org%2fsections%2fthetwo-way%2f2015%2f07%2f14%2f422920192%2f6-things-you-should-know-about-the-iran-nuclear-deal&p=DevEx,5202.1
p97
sg13
g95
sg14
VIran, the United States and five other world powers have reached a landmark agreement about the future of Iran's nuclear programs. The agreement that emerged after years of diplomacy and a final, marathon negotiating session by top diplomats over the past three weeks in Vienna is complex and highly technical.
p98
sg16
(dp99
g26
g95
sg24
g97
sg28
V2017-04-03T03:22:00
p100
sg30
g96
sg31
g98
sg32
Vhttps://api.cognitive.microsoft.com/api/v5/#WebPages.6
p101
ssg34
g101
sg35
Nsg36
g98
sbag1
(g2
g3
Ntp102
Rp103
(dp104
g7
VIran Nuclear Deal - News, Pictures & Videos - CBS News
p105
sg9
Vwww.cbsnews.com/iran-nuclear-deal
p106
sg11
Vhttp://www.bing.com/cr?IG=7C8576517779413F931533AAFCDE65DA&CID=01719958FE9C6A9D14769307FF756BE9&rd=1&h=sZL-sYud5PmLBxC9ERZk0kfkinWmZ6dFlJq17-LiwSg&v=1&r=http%3a%2f%2fwww.cbsnews.com%2firan-nuclear-deal%2f&p=DevEx,5214.1
p107
sg13
g105
sg14
VLatest on Islamic Republic of Iran's hotly contested nuclear program and international efforts to contain it
p108
sg16
(dp109
g26
g105
sg24
g107
sg28
V2017-04-02T03:39:00
p110
sg30
g106
sg31
g108
sg32
Vhttps://api.cognitive.microsoft.com/api/v5/#WebPages.7
p111
ssg34
g111
sg35
Nsg36
g108
sbag1
(g2
g3
Ntp112
Rp113
(dp114
g7
VIran Nuclear Deal Is Reached After Long Negotiations
p115
sg9
Vhttps://www.nytimes.com/2015/07/15/world/middleeast/iran-nuclear...
p116
sg11
Vhttps://www.bing.com/cr?IG=7C8576517779413F931533AAFCDE65DA&CID=01719958FE9C6A9D14769307FF756BE9&rd=1&h=IslYtbxpzfU4yKNO0O7VUrtaH6pQ8kkE7msyd4UwCy8&v=1&r=https%3a%2f%2fwww.nytimes.com%2f2015%2f07%2f15%2fworld%2fmiddleeast%2firan-nuclear-deal-is-reached-after-long-negotiations.html&p=DevEx,5226.1
p117
sg13
g115
sg14
VThe president spoke on Tuesday about the agreement between Iran and world powers, saying it was a \u201ccomprehensive long-term deal with Iran that prevents it from obtaining a nuclear weapon.\u201d
p118
sg16
(dp119
g26
g115
sg24
g117
sg28
V2017-04-03T01:00:00
p120
sg30
g116
sg31
g118
sg32
Vhttps://api.cognitive.microsoft.com/api/v5/#WebPages.8
p121
ssg34
g121
sg35
Nsg36
g118
sbag1
(g2
g3
Ntp122
Rp123
(dp124
g7
VIran nuclear talks: 'Historic' agreement struck - BBC News
p125
sg9
Vwww.bbc.com/news/world-middle-east-33518524
p126
sg11
Vhttp://www.bing.com/cr?IG=7C8576517779413F931533AAFCDE65DA&CID=01719958FE9C6A9D14769307FF756BE9&rd=1&h=G1cifwrB3W1aptJ5awzRMbRJ_9c0eOZJdOXEuA66ztk&v=1&r=http%3a%2f%2fwww.bbc.com%2fnews%2fworld-middle-east-33518524&p=DevEx,5240.1
p127
sg13
g125
sg14
VAfter years of negotiations, world powers reach a deal with Iran on limiting Iranian nuclear activity in return for the lifting of sanctions.
p128
sg16
(dp129
g26
g125
sg24
g127
sg28
V2017-03-24T09:12:00
p130
sg30
g126
sg31
g128
sg32
Vhttps://api.cognitive.microsoft.com/api/v5/#WebPages.9
p131
ssg34
g131
sg35
Nsg36
g128
sbag1
(g2
g3
Ntp132
Rp133
(dp134
g7
VIran nuclear deal: historic agreement in Vienna \u2013 live updates | World ...
p135
sg9
Vhttps://www.theguardian.com/world/live/2015/jul/14/iran-nuclear...
p136
sg11
Vhttps://www.bing.com/cr?IG=7C8576517779413F931533AAFCDE65DA&CID=01719958FE9C6A9D14769307FF756BE9&rd=1&h=Jf8DwJpJ6LeLb4eE5MwGFMtJj5W8h4DyU2N9lYHwkpI&v=1&r=https%3a%2f%2fwww.theguardian.com%2fworld%2flive%2f2015%2fjul%2f14%2firan-nuclear-talks-deal-historic-vienna-live-updates&p=DevEx,5256.1
p137
sg13
g135
sg14
VAgreement to end 12-year standoff over Iran\u2019s nuclear programme unveiled in Vienna. Follow the latest developments live
p138
sg16
(dp139
g26
g135
sg24
g137
sg28
V2017-04-01T23:03:00
p140
sg30
g136
sg31
g138
sg32
Vhttps://api.cognitive.microsoft.com/api/v5/#WebPages.10
p141
ssg34
g141
sg35
Nsg36
g138
sbag1
(g2
g3
Ntp142
Rp143
(dp144
g7
VIran, World Powers Reach Nuclear Deal - WSJ
p145
sg9
Vhttps://www.wsj.com/articles/iran-world-powers-reach-nuclear-deal...
p146
sg11
Vhttps://www.bing.com/cr?IG=7C8576517779413F931533AAFCDE65DA&CID=01719958FE9C6A9D14769307FF756BE9&rd=1&h=A4QMDIJKASmO110CZbVz3KpwJeGrRg8lDMyG1AjTgP0&v=1&r=https%3a%2f%2fwww.wsj.com%2farticles%2firan-world-powers-reach-nuclear-deal-1436861667&p=DevEx,5268.1
p147
sg13
g145
sg14
VIran, World Powers Reach Nuclear Deal Accord sets White House on course for months of political strife with dissenters in Congress, Mideast allies
p148
sg16
(dp149
g26
g145
sg24
g147
sg28
V2017-03-31T06:24:00
p150
sg30
g146
sg31
g148
sg32
Vhttps://api.cognitive.microsoft.com/api/v5/#WebPages.11
p151
ssg34
g151
sg35
Nsg36
g148
sbag1
(g2
g3
Ntp152
Rp153
(dp154
g7
VIran Nuclear Agreement | Ploughshares Fund
p155
sg9
Vwww.ploughshares.org/topic/iran-nuclear-agreement
p156
sg11
Vhttp://www.bing.com/cr?IG=7C8576517779413F931533AAFCDE65DA&CID=01719958FE9C6A9D14769307FF756BE9&rd=1&h=DpSVvhEuSu9RrS54olTEaar7xD2kNwYNHSUTt6euBTo&v=1&r=http%3a%2f%2fwww.ploughshares.org%2ftopic%2firan-nuclear-agreement&p=DevEx,5280.1
p157
sg13
g155
sg14
VThe Iran nuclear agreement is a major victory for national and global security. Negotiated by the US and other world powers, the agreement stopped an Iranian bomb from being developed without starting a new war in the Middle East.
p158
sg16
(dp159
g26
g155
sg24
g157
sg28
V2017-04-01T13:55:00
p160
sg30
g156
sg31
g158
sg32
Vhttps://api.cognitive.microsoft.com/api/v5/#WebPages.12
p161
ssg34
g161
sg35
Nsg36
g158
sbag1
(g2
g3
Ntp162
Rp163
(dp164
g7
VIran nuclear deal: agreement reached in Vienna - live - telegraph.co.uk
p165
sg9
Vwww.telegraph.co.uk/.../iran/11729176/Iran-nuclear-deal-live.html
p166
sg11
Vhttp://www.bing.com/cr?IG=7C8576517779413F931533AAFCDE65DA&CID=01719958FE9C6A9D14769307FF756BE9&rd=1&h=MGS3dKTPwup7asFLtgH9TRuvl-R5dqlMZA_up9dka7o&v=1&r=http%3a%2f%2fwww.telegraph.co.uk%2fnews%2fworldnews%2fmiddleeast%2firan%2f11729176%2fIran-nuclear-deal-live.html&p=DevEx,5295.1
p167
sg13
g165
sg14
VIran nuclear deal: agreement reached in Vienna - as it happened Hillary Clinton, US Democratic presidential candidate, calls the new deal with Iran an "important moment"
p168
sg16
(dp169
g26
g165
sg24
g167
sg28
V2017-04-03T12:35:00
p170
sg30
g166
sg31
g168
sg32
Vhttps://api.cognitive.microsoft.com/api/v5/#WebPages.13
p171
ssg34
g171
sg35
Nsg36
g168
sbag1
(g2
g3
Ntp172
Rp173
(dp174
g7
VIran nuclear deal - apps.washingtonpost.com
p175
sg9
Vhttps://apps.washingtonpost.com/g/documents/world/full-text-of-the...
p176
sg11
Vhttps://www.bing.com/cr?IG=7C8576517779413F931533AAFCDE65DA&CID=01719958FE9C6A9D14769307FF756BE9&rd=1&h=NOwEksup-z8Q5zKzOcW3sm1vF1-MhBUwXoNJa2t93tM&v=1&r=https%3a%2f%2fapps.washingtonpost.com%2fg%2fdocuments%2fworld%2ffull-text-of-the-iran-nuclear-deal%2f1651%2f&p=DevEx,5306.1
p177
sg13
g175
sg14
VThe accord will end decades of economic sanctions against Iran in exchange for restrictions on its nuclear program
p178
sg16
(dp179
g26
g175
sg24
g177
sg28
V2017-03-28T22:18:00
p180
sg30
g176
sg31
g178
sg32
Vhttps://api.cognitive.microsoft.com/api/v5/#WebPages.14
p181
ssg34
g181
sg35
Nsg36
g178
sbag1
(g2
g3
Ntp182
Rp183
(dp184
g7
VIran nuclear deal: the winners and losers | World news | The Guardian
p185
sg9
Vhttps://www.theguardian.com/world/2015/jul/14/iran-nuclear-deal...
p186
sg11
Vhttps://www.bing.com/cr?IG=7C8576517779413F931533AAFCDE65DA&CID=01719958FE9C6A9D14769307FF756BE9&rd=1&h=0f2DZu3qQZhCFv9m9soi_mQs3blN382bk_ZHl_O_gNQ&v=1&r=https%3a%2f%2fwww.theguardian.com%2fworld%2f2015%2fjul%2f14%2firan-nuclear-deal-the-winners-and-losers&p=DevEx,5322.1
p187
sg13
g185
sg14
VNegotiating an international agreement to curb Iran\u2019s nuclear programme in exchange for sanctions relief has been a high-stakes preoccupation for leaders around the world.
p188
sg16
(dp189
g26
g185
sg24
g187
sg28
V2017-03-29T01:51:00
p190
sg30
g186
sg31
g188
sg32
Vhttps://api.cognitive.microsoft.com/api/v5/#WebPages.15
p191
ssg34
g191
sg35
Nsg36
g188
sbag1
(g2
g3
Ntp192
Rp193
(dp194
g7
VUS-Iran nuclear deal: Iran warns Donald Trump not to derail agreement ...
p195
sg9
Vwww.cnn.com/.../iran-warns-donald-trump-nuclear-deal/index.html
p196
sg11
Vhttp://www.bing.com/cr?IG=7C8576517779413F931533AAFCDE65DA&CID=01719958FE9C6A9D14769307FF756BE9&rd=1&h=jOSKhBKYAxuInv2aYGGqJfQH88Vpu04XEkqdygrPCkA&v=1&r=http%3a%2f%2fwww.cnn.com%2f2016%2f12%2f06%2fpolitics%2firan-warns-donald-trump-nuclear-deal%2findex.html&p=DevEx,5336.1
p197
sg13
g195
sg14
VIran will not permit Donald Trump to tear up its nuclear deal with the United States, President Hassan Rouhani warned Tuesday.
p198
sg16
(dp199
g26
g195
sg24
g197
sg28
V2017-04-03T06:47:00
p200
sg30
g196
sg31
g198
sg32
Vhttps://api.cognitive.microsoft.com/api/v5/#WebPages.16
p201
ssg34
g201
sg35
Nsg36
g198
sbag1
(g2
g3
Ntp202
Rp203
(dp204
g7
VEconomist Article on International Nuclear Deal with Iran
p205
sg9
Vwww.economist.com/blogs/economist-explains/2015/04/economist...
p206
sg11
Vhttp://www.bing.com/cr?IG=7C8576517779413F931533AAFCDE65DA&CID=01719958FE9C6A9D14769307FF756BE9&rd=1&h=7grYOrg8cz_5vAtWLyrwFTy4QdpBnKv84bQR_EyxeRQ&v=1&r=http%3a%2f%2fwww.economist.com%2fblogs%2feconomist-explains%2f2015%2f04%2feconomist-explains-3&p=DevEx,5350.1
p207
sg13
g205
sg14
VThe Economist explains Everything you want to know about the Iranian nuclear deal. The Economist explains Apr 5th 2015. by M.S. When and how did these talks begin ... began in February of that year. Prior to that there had been numerous (unsuccessful) attempts to negotiate a deal with Iran since 2002 when Iranian dissident groups raised the alarm over the country\u2019s nuclear programme by revealing the existence of two facilities that had not been declared to the International Atomic ...
p208
sg16
(dp209
Vabout
p210
(lp211
(dp212
g26
VThe Economist
p213
sasg26
g205
sg24
g207
sg28
V2017-04-02T10:49:00
p214
sg30
g206
sg31
g208
sg32
Vhttps://api.cognitive.microsoft.com/api/v5/#WebPages.17
p215
ssg34
g215
sg35
Nsg36
g208
sbag1
(g2
g3
Ntp216
Rp217
(dp218
g7
VWhat's in the Iran nuclear deal? - CNNPolitics.com
p219
sg9
Vwww.cnn.com/2015/07/14/politics/iran-nuclear-deal-highlights
p220
sg11
Vhttp://www.bing.com/cr?IG=7C8576517779413F931533AAFCDE65DA&CID=01719958FE9C6A9D14769307FF756BE9&rd=1&h=Huv_gG4AirzesBkyl_I6DKv6aEVuAT4Og9QO0s7op7k&v=1&r=http%3a%2f%2fwww.cnn.com%2f2015%2f07%2f14%2fpolitics%2firan-nuclear-deal-highlights%2findex.html&p=DevEx,5365.1
p221
sg13
g219
sg14
VIran's nuclear deal is done and historic, but it's complicated -- setting up expansive inspections, phasing out sanctions and addressing complex issues.
p222
sg16
(dp223
g26
g219
sg24
g221
sg28
V2017-04-03T03:52:00
p224
sg30
g220
sg31
g222
sg32
Vhttps://api.cognitive.microsoft.com/api/v5/#WebPages.18
p225
ssg34
g225
sg35
Nsg36
g222
sbag1
(g2
g3
Ntp226
Rp227
(dp228
g7
VChina and the Iran Nuclear Deal | The Diplomat
p229
sg9
Vthediplomat.com/2016/03/china-and-the-iran-nuclear-deal
p230
sg11
Vhttp://www.bing.com/cr?IG=7C8576517779413F931533AAFCDE65DA&CID=01719958FE9C6A9D14769307FF756BE9&rd=1&h=Orm-Z0jXRFFNA1gAwgs5H3OqZjddLNFROd7_18DtN2c&v=1&r=http%3a%2f%2fthediplomat.com%2f2016%2f03%2fchina-and-the-iran-nuclear-deal%2f&p=DevEx,5379.1
p231
sg13
g229
sg14
VOn January 1, 2016, the International Atomic Energy Agency (IAEA) delivered its report to the United Nations Security Council confirming that Iran had taken a series of nuclear-related actions and transparency measures pursuant to the Joint Comprehensive Plan of Action (JCPOA).
p232
sg16
(dp233
g26
g229
sg24
g231
sg28
V2017-03-30T23:40:00
p234
sg30
g230
sg31
g232
sg32
Vhttps://api.cognitive.microsoft.com/api/v5/#WebPages.19
p235
ssg34
g235
sg35
Nsg36
g232
sbag1
(g2
g3
Ntp236
Rp237
(dp238
g7
VIRAN THREATENS TO WALK AWAY FROM NUKE DEAL...
p239
sg9
Vfreebeacon.com/.../iran-threatens-walk-away-nuclear-deal-missile-test
p240
sg11
Vhttp://www.bing.com/cr?IG=7C8576517779413F931533AAFCDE65DA&CID=01719958FE9C6A9D14769307FF756BE9&rd=1&h=I5o9ErMvgWdmR7Hq2bOztht-j0aBCId6zQVnhhBWTWk&v=1&r=http%3a%2f%2ffreebeacon.com%2fnational-security%2firan-threatens-walk-away-nuclear-deal-missile-test%2f&p=DevEx,5393.1
p241
sg13
g239
sg14
VIran on Tuesday again threatened to walk away from the recently implemented nuclear agreement reached last year with global powers.
p242
sg16
(dp243
g26
g239
sg24
g241
sg28
V2017-03-31T01:58:00
p244
sg30
g240
sg31
g242
sg32
Vhttps://api.cognitive.microsoft.com/api/v5/#WebPages.20
p245
ssg34
g245
sg35
Nsg36
g242
sbag1
(g2
g3
Ntp246
Rp247
(dp248
g7
VIran nuclear talks: 'Historic' agreement struck - BBC News
p249
sg9
Vwww.bbc.co.uk/news/world-middle-east-33518524
p250
sg11
Vhttp://www.bing.com/cr?IG=7C8576517779413F931533AAFCDE65DA&CID=01719958FE9C6A9D14769307FF756BE9&rd=1&h=p4YeTrQMdY1nwWIlEh3Utpe5svf1bWZaKtAPbDUQ42I&v=1&r=http%3a%2f%2fwww.bbc.co.uk%2fnews%2fworld-middle-east-33518524&p=DevEx,5410.1
p251
sg13
g249
sg14
VAfter years of negotiations, world powers reach a deal with Iran on limiting Iranian nuclear activity in return for the lifting of sanctions.
p252
sg16
(dp253
g26
g249
sg24
g251
sg28
V2017-03-24T22:00:00
p254
sg30
g250
sg31
g252
sg32
Vhttps://api.cognitive.microsoft.com/api/v5/#WebPages.21
p255
ssg34
g255
sg35
Nsg36
g252
sbag1
(g2
g3
Ntp256
Rp257
(dp258
g7
VIRANIAN NUCLEAR AGREEMENT VIENNA \u2013 14 JULY 2015
p259
sg9
Vwww.bnonews.com/files/images/IranNuclearDeal.PDF
p260
sg11
Vhttp://www.bing.com/cr?IG=7C8576517779413F931533AAFCDE65DA&CID=01719958FE9C6A9D14769307FF756BE9&rd=1&h=NRBlbkQKKvSgfQToU1objLT-kwWQ4Vv3BYbvaLlg_iI&v=1&r=http%3a%2f%2fwww.bnonews.com%2ffiles%2fimages%2fIranNuclearDeal.PDF&p=DevEx,5421.1
p261
sg13
g259
sg14
V1 IRANIAN NUCLEAR AGREEMENT VIENNA \u2013 14 JULY 2015 The E3/EU+3 group and Iran concluded a long-term agreement on the Iranian nuclear issue on 14 July 2015.
p262
sg16
(dp263
g26
g259
sg24
g261
sg28
V2017-04-04T01:04:00
p264
sg30
g260
sg31
g262
sg32
Vhttps://api.cognitive.microsoft.com/api/v5/#WebPages.22
p265
ssg34
g265
sg35
Nsg36
g262
sbag1
(g2
g3
Ntp266
Rp267
(dp268
g7
VIran Nuclear Deal 'On Life Support,' Priebus Says; Won't Say Trump Will ...
p269
sg9
Vhttps://sputniknews.com/politics/201701151049621578-iran-deal-life...
p270
sg11
Vhttps://www.bing.com/cr?IG=7C8576517779413F931533AAFCDE65DA&CID=01719958FE9C6A9D14769307FF756BE9&rd=1&h=ApdJbRcP0L2-l4EXjLtYoMUSEArJNRHokquuih6Y_xc&v=1&r=https%3a%2f%2fsputniknews.com%2fpolitics%2f201701151049621578-iran-deal-life-support%2f&p=DevEx,5432.1
p271
sg13
g269
sg14
VThe Iran nuclear agreement is "on life support," incoming White House Chief of Staff Reince Priebus said January 15, but he wouldn't say whether, in the end, it might survive a Trump administration.
p272
sg16
(dp273
g26
g269
sg24
g271
sg28
V2017-03-29T09:04:00
p274
sg30
g270
sg31
g272
sg32
Vhttps://api.cognitive.microsoft.com/api/v5/#WebPages.23
p275
ssg34
g275
sg35
Nsg36
g272
sbag1
(g2
g3
Ntp276
Rp277
(dp278
g7
VPressTV-Iran complying with nuclear agreement: IAEA
p279
sg9
Vwww.presstv.ir/Detail/2017/02/24/511939/Iran-IAEA-UN-quarterly...
p280
sg11
Vhttp://www.bing.com/cr?IG=7C8576517779413F931533AAFCDE65DA&CID=01719958FE9C6A9D14769307FF756BE9&rd=1&h=dpHKoXzcAbLGclaLRd6dHRU9c2bK4mR9ORzghSmNAlM&v=1&r=http%3a%2f%2fwww.presstv.ir%2fDetail%2f2017%2f02%2f24%2f511939%2fIran-IAEA-UN-quarterly-report-JCPOA-uranium-Reza-Najafi&p=DevEx,5444.1
p281
sg13
g279
sg14
VThe International Atomic Energy Agency (IAEA) has once again confirmed that Iran has lived up to its commitments under the 2015 nuclear agreement it signed with the P5+1 group of countries.
p282
sg16
(dp283
g26
g279
sg24
g281
sg28
V2017-04-01T13:06:00
p284
sg30
g280
sg31
g282
sg32
Vhttps://api.cognitive.microsoft.com/api/v5/#WebPages.24
p285
ssg34
g285
sg35
Nsg36
g282
sbag1
(g2
g3
Ntp286
Rp287
(dp288
g7
VTrump election puts Iran nuclear deal on shaky ground | Reuters
p289
sg9
Vwww.reuters.com/article/us-usa-election-trump-iran-idUSKBN13427E
p290
sg11
Vhttp://www.bing.com/cr?IG=7C8576517779413F931533AAFCDE65DA&CID=01719958FE9C6A9D14769307FF756BE9&rd=1&h=BV84qRkTSpDCuThO8mhTIhUj_Nb2EIwLKsAfsDb90FI&v=1&r=http%3a%2f%2fwww.reuters.com%2farticle%2fus-usa-election-trump-iran-idUSKBN13427E&p=DevEx,5457.1
p291
sg13
g289
sg14
VDonald Trump's election as president raises the prospect the United States will pull out of the nuclear pact it signed last year with Iran, alienating Washington from its allies and potentially freeing Iran to act on its ambitions.
p292
sg16
(dp293
g26
g289
sg24
g291
sg28
V2017-04-01T00:01:00
p294
sg30
g290
sg31
g292
sg32
Vhttps://api.cognitive.microsoft.com/api/v5/#WebPages.25
p295
ssg34
g295
sg35
Nsg36
g292
sbag1
(g2
g3
Ntp296
Rp297
(dp298
g7
VAnalysis: What does the Iran nuclear deal mean? - Fact-Based, In-Depth News
p299
sg9
Vwww.aljazeera.com/.../analysis-iran-nuclear-deal-150403002032133.html
p300
sg11
Vhttp://www.bing.com/cr?IG=7C8576517779413F931533AAFCDE65DA&CID=01719958FE9C6A9D14769307FF756BE9&rd=1&h=OOWauoJDEHv-rug2ZcnMgYRs_W3MzexDeLcSRJ2_RdE&v=1&r=http%3a%2f%2fwww.aljazeera.com%2findepth%2ffeatures%2f2015%2f04%2fanalysis-iran-nuclear-deal-150403002032133.html&p=DevEx,5471.1
p301
sg13
g299
sg14
VWhether the nuclear deal will lead to moderation of conflict between the US and Iran, as the West hopes, or among Iran, Israel and the US' Arab allies, remains unclear, analysts say.
p302
sg16
(dp303
g26
g299
sg24
g301
sg28
V2017-04-02T07:11:00
p304
sg30
g300
sg31
g302
sg32
Vhttps://api.cognitive.microsoft.com/api/v5/#WebPages.26
p305
ssg34
g305
sg35
Nsg36
g302
sbag1
(g2
g3
Ntp306
Rp307
(dp308
g7
VIran\u2019s Nuclear Program - Bloomberg QuickTake
p309
sg9
Vhttps://www.bloomberg.com/quicktake/irans-uranium-enrichment
p310
sg11
Vhttps://www.bing.com/cr?IG=7C8576517779413F931533AAFCDE65DA&CID=01719958FE9C6A9D14769307FF756BE9&rd=1&h=dp6eQ-cjvbWIzYUZrzR1xMdz4__88TOz-DUTLQZwIDk&v=1&r=https%3a%2f%2fwww.bloomberg.com%2fquicktake%2firans-uranium-enrichment&p=DevEx,5485.1
p311
sg13
g309
sg14
VIran\u2019s nuclear capabilities have been the subject of global hand-wringing for more than two decades. While Iran\u2019s leaders long insisted the country was not building nuclear weapons, its enrichment of uranium and history of deception created deep mistrust. After more than two years of negotiations and threats to bomb the country\u2019s facilities, Iran and world powers agreed in 2015 to settle the dispute. The deal set limits on the Islamic Republic\u2019s nuclear work in exchange ...
p312
sg16
(dp313
g26
g309
sg24
g311
sg28
V2017-03-26T18:43:00
p314
sg30
g310
sg31
g312
sg32
Vhttps://api.cognitive.microsoft.com/api/v5/#WebPages.27
p315
ssg34
g315
sg35
Nsg36
g312
sbag1
(g2
g3
Ntp316
Rp317
(dp318
g7
VIran: Nuclear deal will not be renegotiated | Fox News
p319
sg9
Vwww.foxnews.com/world/2017/01/15/iran-nuclear-deal-will-not-be...
p320
sg11
Vhttp://www.bing.com/cr?IG=7C8576517779413F931533AAFCDE65DA&CID=01719958FE9C6A9D14769307FF756BE9&rd=1&h=hl87WfG1ugmNGFSgkKG9LnfainYC9TqJUTK6gwZZifI&v=1&r=http%3a%2f%2fwww.foxnews.com%2fworld%2f2017%2f01%2f15%2firan-nuclear-deal-will-not-be-renegotiated.html&p=DevEx,5500.1
p321
sg13
g319
sg14
VTEHRAN, Iran \u2013 Iran's deputy foreign minister says the nuclear deal between the Islamic Republic and world powers "will not be renegotiated" ahead of U.S. President-elect Donald Trump taking office this week.
p322
sg16
(dp323
g26
g319
sg24
g321
sg28
V2017-04-03T01:29:00
p324
sg30
g320
sg31
g322
sg32
Vhttps://api.cognitive.microsoft.com/api/v5/#WebPages.28
p325
ssg34
g325
sg35
Nsg36
g322
sbag1
(g2
g3
Ntp326
Rp327
(dp328
g7
VIran Nuclear Deal: Israel Condemns Agreement as 'Bad Mistake' - NBC News
p329
sg9
Vwww.nbcnews.com/storyline/iran-nuclear-talks/iran-nuclear-deal...
p330
sg11
Vhttp://www.bing.com/cr?IG=7C8576517779413F931533AAFCDE65DA&CID=01719958FE9C6A9D14769307FF756BE9&rd=1&h=v8zOcrHzWnd3ZbrtXPNB8BA6mLD8GR4jcwOp4DeO-dY&v=1&r=http%3a%2f%2fwww.nbcnews.com%2fstoryline%2firan-nuclear-talks%2firan-nuclear-deal-israel-condemns-agreement-bad-mistake-n391606&p=DevEx,5514.1
p331
sg13
g329
sg14
VMoshe Yaalon, the country's defense minister, condemned the deal and said it nade Iran more dangerous. "This agreement is a tragedy for all who aspire for regional stability and fear a nuclear Iran," he said in a tweet.
p332
sg16
(dp333
g26
g329
sg24
g331
sg28
V2017-03-27T09:10:00
p334
sg30
g330
sg31
g332
sg32
Vhttps://api.cognitive.microsoft.com/api/v5/#WebPages.29
p335
ssg34
g335
sg35
Nsg36
g332
sbag1
(g2
g3
Ntp336
Rp337
(dp338
g7
VIran Nuclear Deal: Trump Will Renegotiate or Kill It | National Review
p339
sg9
Vwww.nationalreview.com/article/442171/iran-nuclear-deal-trump-will...
p340
sg11
Vhttp://www.bing.com/cr?IG=7C8576517779413F931533AAFCDE65DA&CID=01719958FE9C6A9D14769307FF756BE9&rd=1&h=aBH4L81XfvvIbr685DG8f0NJo_iGgKiONEATbd2uDDA&v=1&r=http%3a%2f%2fwww.nationalreview.com%2farticle%2f442171%2firan-nuclear-deal-trump-will-renegotiate-or-kill-it&p=DevEx,5526.1
p341
sg13
g339
sg14
VFixing or killing the Iran nuclear deal will be President Trump\u2019s first step toward restoring America\u2019s global leadership. In the days following Donald Trump\u2019s victory, a variety of experts \u2014 mostly Trump critics \u2014 pronounced that, despite Trump\u2019s frequent statements during the
p342
sg16
(dp343
g26
g339
sg24
g341
sg28
V2017-03-20T04:39:00
p344
sg30
g340
sg31
g342
sg32
Vhttps://api.cognitive.microsoft.com/api/v5/#WebPages.30
p345
ssg34
g345
sg35
Nsg36
g342
sbag1
(g2
g3
Ntp346
Rp347
(dp348
g7
VIran nuclear deal could collapse under Trump - The Washington Post
p349
sg9
Vhttps://www.washingtonpost.com/world/national-security/iran...
p350
sg11
Vhttps://www.bing.com/cr?IG=7C8576517779413F931533AAFCDE65DA&CID=01719958FE9C6A9D14769307FF756BE9&rd=1&h=osdUDiKMIRLSZob9M47P_YMeC-WO2wBmw7zxjZvB4ks&v=1&r=https%3a%2f%2fwww.washingtonpost.com%2fworld%2fnational-security%2firan-nuclear-deal-could-collapse-under-trump%2f2016%2f11%2f09%2ff2d2bd02-a68c-11e6-ba59-a7d93165c6d4_story.html&p=DevEx,5539.1
p351
sg13
g349
sg14
VThe future of the historic nuclear agreement with Iran is in the air with the prospect that a Donald Trump administration could take steps that would cause Iran to abandon its commitments, experts said Wednesday. Some characterized Trump\u2019s election as a death knell for the deal, which was reached
p352
sg16
(dp353
g26
g349
sg24
g351
sg28
V2017-03-25T02:40:00
p354
sg30
g350
sg31
g352
sg32
Vhttps://api.cognitive.microsoft.com/api/v5/#WebPages.31
p355
ssg34
g355
sg35
Nsg36
g352
sbag1
(g2
g3
Ntp356
Rp357
(dp358
g7
VIran nuclear deal: What each side won and lost - usatoday.com
p359
sg9
Vwww.usatoday.com/story/news/world/2015/07/14/iran-deal-what-each...
p360
sg11
Vhttp://www.bing.com/cr?IG=7C8576517779413F931533AAFCDE65DA&CID=01719958FE9C6A9D14769307FF756BE9&rd=1&h=_KgMREwyjKNkwlp-5rO9MUMpToweTUeFIgaUOMKy86o&v=1&r=http%3a%2f%2fwww.usatoday.com%2fstory%2fnews%2fworld%2f2015%2f07%2f14%2firan-deal-what-each-won-and-lost%2f30062147%2f&p=DevEx,5555.1
p361
sg13
g359
sg14
VPresident Obama said the Iran nuclear deal guarantees that the country can not produce nuclear weapons. He said any violations will lead to serious consequences. USA TODAY Both the United States and Iran made concessions to reach Tuesday's landmark nuclear agreement. Here is a look at what both
p362
sg16
(dp363
g26
g359
sg24
g361
sg28
V2017-04-03T08:44:00
p364
sg30
g360
sg31
g362
sg32
Vhttps://api.cognitive.microsoft.com/api/v5/#WebPages.32
p365
ssg34
g365
sg35
Nsg36
g362
sbag1
(g2
g3
Ntp366
Rp367
(dp368
g7
VHow the Iran nuclear deal could unravel - cnbc.com
p369
sg9
Vwww.cnbc.com/2017/02/03/how-the-iran-nuclear-deal-could-unravel.html
p370
sg11
Vhttp://www.bing.com/cr?IG=7C8576517779413F931533AAFCDE65DA&CID=01719958FE9C6A9D14769307FF756BE9&rd=1&h=ca4pgVEjwqm1jXQTqV_iBopQhzSdwQYIlLqCCsbZ4IA&v=1&r=http%3a%2f%2fwww.cnbc.com%2f2017%2f02%2f03%2fhow-the-iran-nuclear-deal-could-unravel.html&p=DevEx,5570.1
p371
sg13
g369
sg14
VThe odds of the historic Iran nuclear deal unraveling are rising amid heightened tensions between the United States and Iran, analysts say.
p372
sg16
(dp373
g26
g369
sg24
g371
sg28
V2017-04-02T05:12:00
p374
sg30
g370
sg31
g372
sg32
Vhttps://api.cognitive.microsoft.com/api/v5/#WebPages.33
p375
ssg34
g375
sg35
Nsg36
g372
sbag1
(g2
g3
Ntp376
Rp377
(dp378
g7
VIran nuclear agreement: A timeline - CBS News
p379
sg9
Vwww.cbsnews.com/media/iran-nuclear-agreement-timeline
p380
sg11
Vhttp://www.bing.com/cr?IG=7C8576517779413F931533AAFCDE65DA&CID=01719958FE9C6A9D14769307FF756BE9&rd=1&h=Br5FwmywIwxhX1QkFgMEbFhnjqLDEShMElIiw4ZZmwE&v=1&r=http%3a%2f%2fwww.cbsnews.com%2fmedia%2firan-nuclear-agreement-timeline%2f&p=DevEx,5584.1
p381
sg13
g379
sg14
VThe nuclear agreement between Iran and six world powers is the result of more than a decade of diplomacy designed to ensure the Islamic Republic cannot
p382
sg16
(dp383
g26
g379
sg24
g381
sg28
V2017-03-29T18:55:00
p384
sg30
g380
sg31
g382
sg32
Vhttps://api.cognitive.microsoft.com/api/v5/#WebPages.34
p385
ssg34
g385
sg35
Nsg36
g382
sbag1
(g2
g3
Ntp386
Rp387
(dp388
g7
VWill the Iran nuclear agreement work? | PBS NewsHour
p389
sg9
Vwww.pbs.org/newshour/bb/will-iran-nuclear-agreement-work
p390
sg11
Vhttp://www.bing.com/cr?IG=7C8576517779413F931533AAFCDE65DA&CID=01719958FE9C6A9D14769307FF756BE9&rd=1&h=sQLCYjIN1SGG5eiGja-E9xyAqyXW3svaBak2LBr5F6o&v=1&r=http%3a%2f%2fwww.pbs.org%2fnewshour%2fbb%2fwill-iran-nuclear-agreement-work%2f&p=DevEx,5603.1
p391
sg13
g389
sg14
VTo evaluate the significance and effectiveness of the Iran nuclear agreement, Judy Woodruff gets reaction from former CIA Director James Woolsey, Dennis Ross, a former Middle East peace envoy, former National Security Advisor Sandy Berger and retired Gen. Michael Hayden, also a former CIA director.
p392
sg16
(dp393
g26
g389
sg24
g391
sg28
V2017-04-02T21:04:00
p394
sg30
g390
sg31
g392
sg32
Vhttps://api.cognitive.microsoft.com/api/v5/#WebPages.35
p395
ssg34
g395
sg35
Nsg36
g392
sbag1
(g2
g3
Ntp396
Rp397
(dp398
g7
VIran nuclear agreement: An overview - Ballotpedia
p399
sg9
Vhttps://ballotpedia.org/Iran_nuclear_agreement:_An_overview
p400
sg11
Vhttps://www.bing.com/cr?IG=7C8576517779413F931533AAFCDE65DA&CID=01719958FE9C6A9D14769307FF756BE9&rd=1&h=E2Bu1gRCgoFGBNAiNmLUkzheaAKvGrMJLl4jpnLlF0Y&v=1&r=https%3a%2f%2fballotpedia.org%2fIran_nuclear_agreement%3a_An_overview&p=DevEx,5617.1
p401
sg13
g399
sg14
VBy Kelly Coyle. The United States, the United Kingdom, China, France, Germany, the Russian Federation and the European Union, also known as the P5+1 or the E3/EU+3, reached a historic agreement with the Islamic Republic of Iran regarding the development of its nuclear program on July 14, 2015. The agreement, formally known as the Joint Comprehensive Plan of Action (JCPOA), places limits on Iran's nuclear program in exchange for economic sanctions relief.
p402
sg16
(dp403
g26
g399
sg24
g401
sg28
V2017-03-15T15:34:00
p404
sg30
g400
sg31
g402
sg32
Vhttps://api.cognitive.microsoft.com/api/v5/#WebPages.36
p405
ssg34
g405
sg35
Nsg36
g402
sbag1
(g2
g3
Ntp406
Rp407
(dp408
g7
VWhat the Iran nuclear deal means \u2013 and what it doesn't
p409
sg9
Vtheconversation.com/what-the-iran-nuclear-deal-means-and-what-it...
p410
sg11
Vhttp://www.bing.com/cr?IG=7C8576517779413F931533AAFCDE65DA&CID=01719958FE9C6A9D14769307FF756BE9&rd=1&h=NjnM2xKJihaq9vS7RC5yqTPvLBwrCwcYdzduDt7Rmk4&v=1&r=http%3a%2f%2ftheconversation.com%2fwhat-the-iran-nuclear-deal-means-and-what-it-doesnt-44685&p=DevEx,5631.1
p411
sg13
g409
sg14
VIran and the 5+1/E3+3 Powers (US, Britain, France, Germany, China, and Russia) have at last completed a comprehensive nuclear agreement after years of discussions and threats of conflict. The deal sets out requirements for keeping Iran\u2019s nuclear programme from producing nuclear weapons, and
p412
sg16
(dp413
g26
g409
sg24
g411
sg28
V2017-04-03T06:38:00
p414
sg30
g410
sg31
g412
sg32
Vhttps://api.cognitive.microsoft.com/api/v5/#WebPages.37
p415
ssg34
g415
sg35
Nsg36
g412
sbag1
(g2
g3
Ntp416
Rp417
(dp418
g7
VIran nuclear deal is in the crosshairs and may not survive a Trump ...
p419
sg9
Vhttps://www.washingtonpost.com/world/national-security/iran...
p420
sg11
Vhttps://www.bing.com/cr?IG=7C8576517779413F931533AAFCDE65DA&CID=01719958FE9C6A9D14769307FF756BE9&rd=1&h=tAMv93t6mFCWpiAIZIz6Bmi-MliT04UHI_q_GpeYIH4&v=1&r=https%3a%2f%2fwww.washingtonpost.com%2fworld%2fnational-security%2firan-nuclear-deal-is-in-the-crosshairs-and-may-not-survive-a-trump-administration%2f2017%2f01%2f11%2fb56313d4-d744-11e6-9f9f-5cdb4b7f8dd7_story.html&p=DevEx,5644.1
p421
sg13
g419
sg14
VThe Iran nuclear deal was written with several \u201csunset\u201d provisions setting expiration dates, some of them 15 years into the future, when restrictions on the Islamic Republic\u2019s nuclear program would lift. Then Donald Trump was elected president, and a sunset on the deal itself became possible
p422
sg16
(dp423
g26
g419
sg24
g421
sg28
V2017-03-23T23:20:00
p424
sg30
g420
sg31
g422
sg32
Vhttps://api.cognitive.microsoft.com/api/v5/#WebPages.38
p425
ssg34
g425
sg35
Nsg36
g422
sbag1
(g2
g3
Ntp426
Rp427
(dp428
g7
VThe Iran Nuclear Agreement: Yes, There Is a Better Alternative
p429
sg9
Vwww.heritage.org/middle-east/report/the-iran-nuclear-agreement-yes...
p430
sg11
Vhttp://www.bing.com/cr?IG=7C8576517779413F931533AAFCDE65DA&CID=01719958FE9C6A9D14769307FF756BE9&rd=1&h=l53lbotvmWsfVUof3bFyfDkZo6_5Fuk_uxNNeeBd164&v=1&r=http%3a%2f%2fwww.heritage.org%2fmiddle-east%2freport%2fthe-iran-nuclear-agreement-yes-there-better-alternative&p=DevEx,5655.1
p431
sg13
g429
sg14
VThe Obama Administration has argued that there is no better alternative to its controversial nuclear agreement with Iran. But rather than cutting off all paths to a nuclear weapon, as the Administration initially promised, the so-called Vienna Agreement only temporarily slows down Iran\u2019s progress
p432
sg16
(dp433
g26
g429
sg24
g431
sg28
V2017-03-23T00:08:00
p434
sg30
g430
sg31
g432
sg32
Vhttps://api.cognitive.microsoft.com/api/v5/#WebPages.39
p435
ssg34
g435
sg35
Nsg36
g432
sbag1
(g2
g3
Ntp436
Rp437
(dp438
g7
VIran once again exceeds a nuclear deal limit: IAEA report | Reuters
p439
sg9
Vwww.reuters.com/article/us-iran-nuclear-idUSKBN1342T1
p440
sg11
Vhttp://www.bing.com/cr?IG=7C8576517779413F931533AAFCDE65DA&CID=01719958FE9C6A9D14769307FF756BE9&rd=1&h=ABAQBFFI8gBihJshthLE1A2R4jL-DXFTzTGwrcjlsa8&v=1&r=http%3a%2f%2fwww.reuters.com%2farticle%2fus-iran-nuclear-idUSKBN1342T1&p=DevEx,5668.1
p441
sg13
g439
sg14
VIran has exceeded a soft limit on sensitive material set under its nuclear deal with major powers, the U.N. atomic watchdog said on Wednesday, hours after Donald Trump - who has strongly criticized the agreement - won the U.S. presidential election.
p442
sg16
(dp443
g26
g439
sg24
g441
sg28
V2017-04-02T13:00:00
p444
sg30
g440
sg31
g442
sg32
Vhttps://api.cognitive.microsoft.com/api/v5/#WebPages.40
p445
ssg34
g445
sg35
Nsg36
g442
sbag1
(g2
g3
Ntp446
Rp447
(dp448
g7
VA Guide to the Iran Nuclear Deal's Supporters and Opponents - The Atlantic
p449
sg9
Vhttps://www.theatlantic.com/international/archive/2015/07/the-iran...
p450
sg11
Vhttps://www.bing.com/cr?IG=7C8576517779413F931533AAFCDE65DA&CID=01719958FE9C6A9D14769307FF756BE9&rd=1&h=u-lJnsJ5Yj-3IvWKnX0kL0OQyOFnJjWeH9DPG4xsQvM&v=1&r=https%3a%2f%2fwww.theatlantic.com%2finternational%2farchive%2f2015%2f07%2fthe-iran-debate-moves-on%2f399713%2f&p=DevEx,5681.1
p451
sg13
g449
sg14
VA week ago I volunteered my way into an Atlantic debate on the merits of the Iran nuclear agreement. The long version of the post is here; the summary is that the administration has both specific facts and longer-term historic patterns on its side in recommending the deal.
p452
sg16
(dp453
g26
g449
sg24
g451
sg28
V2017-04-01T01:21:00
p454
sg30
g450
sg31
g452
sg32
Vhttps://api.cognitive.microsoft.com/api/v5/#WebPages.41
p455
ssg34
g455
sg35
Nsg36
g452
sbag1
(g2
g3
Ntp456
Rp457
(dp458
g7
VIran, world powers reach landmark nuclear agreement
p459
sg9
Vwww.usatoday.com/.../world/2015/07/14/iran-nuclear-agreement/30121291
p460
sg11
Vhttp://www.bing.com/cr?IG=7C8576517779413F931533AAFCDE65DA&CID=01719958FE9C6A9D14769307FF756BE9&rd=1&h=ttrYADRoY-4RPoaIkaLewK1jL6pmOHQUonBRJ3jOTp0&v=1&r=http%3a%2f%2fwww.usatoday.com%2fstory%2fnews%2fworld%2f2015%2f07%2f14%2firan-nuclear-agreement%2f30121291%2f&p=DevEx,5698.1
p461
sg13
g459
sg14
VA landmark agreement to limit Iran's nuclear program in return for the easing of economic sanctions has been reached in Vienna.
p462
sg16
(dp463
g26
g459
sg24
g461
sg28
V2017-03-19T14:23:00
p464
sg30
g460
sg31
g462
sg32
Vhttps://api.cognitive.microsoft.com/api/v5/#WebPages.42
p465
ssg34
g465
sg35
Nsg36
g462
sbag1
(g2
g3
Ntp466
Rp467
(dp468
g7
VIran After the Nuclear Deal | Crisis Group
p469
sg9
Vhttps://www.crisisgroup.org/.../iran/iran-after-nuclear-deal
p470
sg11
Vhttps://www.bing.com/cr?IG=7C8576517779413F931533AAFCDE65DA&CID=01719958FE9C6A9D14769307FF756BE9&rd=1&h=4PR7egaA2AQYUknOF2jxe10F_ud-MqDO63BC0z_Cqlo&v=1&r=https%3a%2f%2fwww.crisisgroup.org%2fmiddle-east-north-africa%2fgulf-and-arabian-peninsula%2firan%2firan-after-nuclear-deal&p=DevEx,5711.1
p471
sg13
g469
sg14
VSome in the West hope the nuclear deal with Iran will empower the country\u2019s moderates. But playing Iranian domestic politics directly could backfire. The West should recognise that any change will be gradual, best supported by implementing the nuclear accord, resuming trade, and diplomacy that balances Iranian and Arab interests in the Middle East.
p472
sg16
(dp473
g26
g469
sg24
g471
sg28
V2017-03-29T19:14:00
p474
sg30
g470
sg31
g472
sg32
Vhttps://api.cognitive.microsoft.com/api/v5/#WebPages.43
p475
ssg34
g475
sg35
Nsg36
g472
sbag1
(g2
g3
Ntp476
Rp477
(dp478
g7
VUN watchdog: Iran complying with nuclear deal | News | DW.COM | 25.02.2017
p479
sg9
Vwww.dw.com/en/un-watchdog-iran-complying-with-nuclear-deal/a-37712113
p480
sg11
Vhttp://www.bing.com/cr?IG=7C8576517779413F931533AAFCDE65DA&CID=01719958FE9C6A9D14769307FF756BE9&rd=1&h=gJnxXh5VVUH039vW6Q2dABGdtr3LAKZKxzTZizGUwqA&v=1&r=http%3a%2f%2fwww.dw.com%2fen%2fun-watchdog-iran-complying-with-nuclear-deal%2fa-37712113&p=DevEx,5723.1
p481
sg13
g479
sg14
VIran is complying with the nuclear deal reached with international powers in 2015, the UN atomic watchdog said in its latest quarterly report on Friday.
p482
sg16
(dp483
g26
g479
sg24
g481
sg28
V2017-04-02T03:53:00
p484
sg30
g480
sg31
g482
sg32
Vhttps://api.cognitive.microsoft.com/api/v5/#WebPages.44
p485
ssg34
g485
sg35
Nsg36
g482
sbag1
(g2
g3
Ntp486
Rp487
(dp488
g7
VUN endorses Iran nuclear agreement - Al Jazeera English
p489
sg9
Vwww.aljazeera.com/.../07/...iran-nuclear-deal-150720131953369.html
p490
sg11
Vhttp://www.bing.com/cr?IG=7C8576517779413F931533AAFCDE65DA&CID=01719958FE9C6A9D14769307FF756BE9&rd=1&h=58As3Cw4lg6-58dF4niDKCucMaRcdbSBTDK5k5-PrsQ&v=1&r=http%3a%2f%2fwww.aljazeera.com%2fnews%2f2015%2f07%2fsecurity-council-adopts-resolution-endorsing-iran-nuclear-deal-150720131953369.html&p=DevEx,5736.1
p491
sg13
g489
sg14
VThe UN Security Council has unanimously adopted a resolution that will clear a path for international sanctions crippling Iran's economy to be lifted.
p492
sg16
(dp493
g26
g489
sg24
g491
sg28
V2017-04-04T02:19:00
p494
sg30
g490
sg31
g492
sg32
Vhttps://api.cognitive.microsoft.com/api/v5/#WebPages.45
p495
ssg34
g495
sg35
Nsg36
g492
sbag1
(g2
g3
Ntp496
Rp497
(dp498
g7
VA summary of the Iran nuclear deal - Telegraph
p499
sg9
Vwww.telegraph.co.uk/.../A-summary-of-the-Iran-nuclear-deal.html
p500
sg11
Vhttp://www.bing.com/cr?IG=7C8576517779413F931533AAFCDE65DA&CID=01719958FE9C6A9D14769307FF756BE9&rd=1&h=6lJsJt0zZhVOjZ5ag9az0olYP010nRoeNpSoocJyVSE&v=1&r=http%3a%2f%2fwww.telegraph.co.uk%2fnews%2fworldnews%2fmiddleeast%2firan%2f11739214%2fA-summary-of-the-Iran-nuclear-deal.html&p=DevEx,5752.1
p501
sg13
g499
sg14
VA summary of the Iran nuclear deal The essential terms of the deal, including the fact that Iran will remain subject to a UN arms embargo for five years.
p502
sg16
(dp503
g26
g499
sg24
g501
sg28
V2017-04-03T14:06:00
p504
sg30
g500
sg31
g502
sg32
Vhttps://api.cognitive.microsoft.com/api/v5/#WebPages.46
p505
ssg34
g505
sg35
Nsg36
g502
sbag1
(g2
g3
Ntp506
Rp507
(dp508
g7
VIran Agrees To A Breakthrough Nuclear Deal - ft.com
p509
sg9
Vhttps://www.ft.com/content/271a104c-296b-11e5-8613-e7aedbb7bdb7
p510
sg11
Vhttps://www.bing.com/cr?IG=7C8576517779413F931533AAFCDE65DA&CID=01719958FE9C6A9D14769307FF756BE9&rd=1&h=Q2gZIvhtFc2xUpZnt9FytXjLOhL-jZ_UekOA7JFE950&v=1&r=https%3a%2f%2fwww.ft.com%2fcontent%2f271a104c-296b-11e5-8613-e7aedbb7bdb7&p=DevEx,5764.1
p511
sg13
g509
sg14
VHassan Rouhani, Iran\u2019s president, said that the deal \u201copens a new chapter\u201d in its international relations, putting an end to \u201cwrong, unfair and inhumane\u201d sanctions.
p512
sg16
(dp513
g26
g509
sg24
g511
sg28
V2017-04-01T10:30:00
p514
sg30
g510
sg31
g512
sg32
Vhttps://api.cognitive.microsoft.com/api/v5/#WebPages.47
p515
ssg34
g515
sg35
Nsg36
g512
sbag1
(g2
g3
Ntp516
Rp517
(dp518
g7
VIran, World Powers Reach Historic Nuclear Deal - NBC News
p519
sg9
Vwww.nbcnews.com/storyline/iran-nuclear-talks/iran-nuclear-deal-n390461
p520
sg11
Vhttp://www.bing.com/cr?IG=7C8576517779413F931533AAFCDE65DA&CID=01719958FE9C6A9D14769307FF756BE9&rd=1&h=S3t4oiCpSeOuy8XDkoS3XxUnfjZdUP1_TRcIpuHcjHQ&v=1&r=http%3a%2f%2fwww.nbcnews.com%2fstoryline%2firan-nuclear-talks%2firan-nuclear-deal-n390461&p=DevEx,5780.1
p521
sg13
g519
sg14
VIran has pledged to curb its nuclear program in exchange for the easing of economic sanctions in a historic pact, NBC News confirmed Tuesday.
p522
sg16
(dp523
g26
g519
sg24
g521
sg28
V2017-03-31T06:25:00
p524
sg30
g520
sg31
g522
sg32
Vhttps://api.cognitive.microsoft.com/api/v5/#WebPages.48
p525
ssg34
g525
sg35
Nsg36
g522
sba.