(lp0
ccopy_reg
_reconstructor
p1
(cpy_ms_cognitive.py_ms_cognitive_search.py_ms_cognitive_web_search
WebResult
p2
c__builtin__
object
p3
Ntp4
Rp5
(dp6
S'name'
p7
VThe Clinton Foundation
p8
sS'display_url'
p9
Vhttps://www.clintonfoundation.org
p10
sS'url'
p11
Vhttps://www.bing.com/cr?IG=AF6BC3D30B3B41FB83A9AE57DC9BC5D4&CID=2A462FC06A8168E23D24259F6B686983&rd=1&h=2InQyX0IdzC6YJ9bDxlJZiW9iN4SHYGUuLxQm4GHUZ0&v=1&r=https%3a%2f%2fwww.clintonfoundation.org%2f&p=DevEx,5111.1
p12
sS'title'
p13
g8
sS'snippet'
p14
VThe Clinton Foundation convenes businesses, governments, NGOs, and individuals to improve global health and wellness, increase opportunity for women and girls, reduce childhood obesity, create economic opportunity and growth, and help communities address the effects of climate change.
p15
sS'json'
p16
(dp17
Vname
p18
g8
sVurl
p19
g12
sVdeepLinks
p20
(lp21
(dp22
g19
Vhttps://www.bing.com/cr?IG=AF6BC3D30B3B41FB83A9AE57DC9BC5D4&CID=2A462FC06A8168E23D24259F6B686983&rd=1&h=biYkHE6WmK1yZGaHH29UPzdZ8igAMRf7ohrEbUS4ngk&v=1&r=https%3a%2f%2fwww.clintonfoundation.org%2fcareers%2f&p=DevEx,5101.1
p23
sVsnippet
p24
VWe appreciate your interest in employment opportunities with the Clinton Foundation. We encourage you to review our jobs postings and apply for a specific opening.We are fortunate to receive a considerable number of applications from highly qualified individuals. We will contact those candidates who best match the position requirements to begin the interview process.
p25
sg18
VCareers
p26
sa(dp27
g19
Vhttps://www.bing.com/cr?IG=AF6BC3D30B3B41FB83A9AE57DC9BC5D4&CID=2A462FC06A8168E23D24259F6B686983&rd=1&h=93pFKSzy1w4ZEycbDqYAShmitgimK_86q9d2mFtoODc&v=1&r=https%3a%2f%2fwww.clintonfoundation.org%2fclinton-global-initiative&p=DevEx,5102.1
p28
sg24
VSince 2001, the Clinton Foundation has worked to improve lives around the world and build upon President Clinton\u2019s legacy of public service.
p29
sg18
VClinton Global Initiative
p30
sa(dp31
g19
Vhttps://www.bing.com/cr?IG=AF6BC3D30B3B41FB83A9AE57DC9BC5D4&CID=2A462FC06A8168E23D24259F6B686983&rd=1&h=wsAQajN0FtH1mnh5NrZ-W9ESw2fp91UrcvacfJmHCU4&v=1&r=https%3a%2f%2fwww.clintonfoundation.org%2fabout&p=DevEx,5103.1
p32
sg24
VWe believe that the best way to unlock human potential is through the power of creative collaboration. That's why we build partnerships between businesses, NGOs, governments, and individuals everywhere to work faster, leaner, and better; to find solutions that last; and to transform lives and communities from what they are today to what they can be, tomorrow.
p33
sg18
VAbout
p34
sa(dp35
g19
Vhttps://www.bing.com/cr?IG=AF6BC3D30B3B41FB83A9AE57DC9BC5D4&CID=2A462FC06A8168E23D24259F6B686983&rd=1&h=9Fm5cDHmABZhZu-FOMJcwidgRVnYeGnRg4Sm1v-GRZI&v=1&r=https%3a%2f%2fwww.clintonfoundation.org%2fabout%2fpresident-clinton&p=DevEx,5104.1
p36
sg24
VWilliam Jefferson Clinton, the first Democratic president in six decades to be elected twice, led the U.S. to the longest economic expansion in American history, including the creation of more than 22 million jobs. After leaving the White House, President Clinton established the William J. Clinton
p37
sg18
VPresident Clinton
p38
sa(dp39
g19
Vhttps://www.bing.com/cr?IG=AF6BC3D30B3B41FB83A9AE57DC9BC5D4&CID=2A462FC06A8168E23D24259F6B686983&rd=1&h=krsfvLofOepuphE39c3NWPZ2JVdLaZITTyzsG_aFfRk&v=1&r=https%3a%2f%2fwww.clintonfoundation.org%2ffraud-alert&p=DevEx,5105.1
p40
sg24
VRecently, some Foundation donors have received emails saying their Foundation account information has been hacked, and seeking to confirm personal information via a linked website. This email is not from the Clinton Foundation \u2013 it is a phishing attempt. We urge you not to respond to or click
p41
sg18
VFraud Alert
p42
sa(dp43
g19
Vhttps://www.bing.com/cr?IG=AF6BC3D30B3B41FB83A9AE57DC9BC5D4&CID=2A462FC06A8168E23D24259F6B686983&rd=1&h=vRby-YihRav_jWtoSA1TsIchDZ4rHq3v_YtUYgW_VLw&v=1&r=https%3a%2f%2fwww.clintonfoundation.org%2four-work%2fclinton-foundation-haiti&p=DevEx,5106.1
p44
sg24
VMore About the Clinton Foundation in Haiti. The Clinton Foundation has been actively engaged in Haiti since 2009, focusing on economic diversification, private sector investment, and job creation in order to create long-term, sustainable economic development.
p45
sg18
VClinton Foundation in Haiti
p46
sasVdateLastCrawled
p47
V2017-04-04T01:29:00
p48
sVdisplayUrl
p49
g10
sg24
g15
sVid
p50
Vhttps://api.cognitive.microsoft.com/api/v5/#WebPages.0
p51
ssS'id'
p52
g51
sS'deep_links'
p53
g21
sS'description'
p54
g15
sbag1
(g2
g3
Ntp55
Rp56
(dp57
g7
VClinton Foundation - Wikipedia
p58
sg9
Vhttps://en.wikipedia.org/wiki/Clinton_Foundation
p59
sg11
Vhttps://www.bing.com/cr?IG=AF6BC3D30B3B41FB83A9AE57DC9BC5D4&CID=2A462FC06A8168E23D24259F6B686983&rd=1&h=45wGmm_73JCSk_4zxCGWqxHVcOWbkKy3wPY2xd3vsMM&v=1&r=https%3a%2f%2fen.wikipedia.org%2fwiki%2fClinton_Foundation&p=DevEx,5133.1
p60
sg13
g58
sg14
VThe Clinton Foundation (founded in 1997 as the William J. Clinton Foundation), and from 2013 to 2015, briefly renamed the Bill, Hillary & Chelsea Clinton Foundation) is a nonprofit corporation under section 501(c)(3) of the U.S. tax code.
p61
sg16
(dp62
VsnippetAttribution
p63
(dp64
VlicenseNotice
p65
VText under CC-BY-SA license
p66
sVlicense
p67
(dp68
g19
Vhttp://www.bing.com/cr?IG=AF6BC3D30B3B41FB83A9AE57DC9BC5D4&CID=2A462FC06A8168E23D24259F6B686983&rd=1&h=tJYnHtBaEymlKo_fRl0wo_ZHu4dAaCwVMH_BvcixOgM&v=1&r=http%3a%2f%2fcreativecommons.org%2flicenses%2fby-sa%2f3.0%2f&p=DevEx,5977.1
p69
sg18
VCC-BY-SA
p70
sssVabout
p71
(lp72
(dp73
g18
VClinton Foundation
p74
sasg18
g58
sg19
g60
sg47
V2017-04-03T21:13:00
p75
sg49
g59
sg24
g61
sg50
Vhttps://api.cognitive.microsoft.com/api/v5/#WebPages.1
p76
ssg52
g76
sg53
Nsg54
g61
sbag1
(g2
g3
Ntp77
Rp78
(dp79
g7
VClinton Foundation Scandal News | Hillary Clinton Election 2016 ...
p80
sg9
Vwww.investors.com/politics/editorials/clinton-foundation-scandal
p81
sg11
Vhttp://www.bing.com/cr?IG=AF6BC3D30B3B41FB83A9AE57DC9BC5D4&CID=2A462FC06A8168E23D24259F6B686983&rd=1&h=g4hcjZ_cOTLIg6V3QNeg6IJhtNzE8LZW8FM8ehHoqH4&v=1&r=http%3a%2f%2fwww.investors.com%2fpolitics%2feditorials%2fclinton-foundation-scandal%2f&p=DevEx,5160.1
p82
sg13
g80
sg14
VRead the latest news about the Clinton Foundation Scandal and other news and commentary about the 2016 election and Hillary Clinton.
p83
sg16
(dp84
g18
g80
sg19
g82
sg47
V2017-04-02T01:35:00
p85
sg49
g81
sg24
g83
sg50
Vhttps://api.cognitive.microsoft.com/api/v5/#WebPages.2
p86
ssg52
g86
sg53
Nsg54
g83
sbag1
(g2
g3
Ntp87
Rp88
(dp89
g7
VWhat is the Clinton Foundation and why is it controversial ...
p90
sg9
Vwww.cnn.com/2016/08/24/politics/clinton-foundation-explainer
p91
sg11
Vhttp://www.bing.com/cr?IG=AF6BC3D30B3B41FB83A9AE57DC9BC5D4&CID=2A462FC06A8168E23D24259F6B686983&rd=1&h=P-49_V0T2SkOj9X_JYivJt749d3zFfYFzDt__1u6lKg&v=1&r=http%3a%2f%2fwww.cnn.com%2f2016%2f08%2f24%2fpolitics%2fclinton-foundation-explainer%2findex.html&p=DevEx,5174.1
p92
sg13
g90
sg14
VWashington (CNN)The Clinton Foundation is under intensifying scrutiny as Republicans accuse it of being a corrupt and opaque institution. GOP presidential candidate Donald Trump is calling for a special prosecutor to investigate the foundation and charged Democratic opponent Hillary Clinton engaged
p93
sg16
(dp94
g18
g90
sg19
g92
sg47
V2017-04-03T14:08:00
p95
sg49
g91
sg24
g93
sg50
Vhttps://api.cognitive.microsoft.com/api/v5/#WebPages.3
p96
ssg52
g96
sg53
Nsg54
g93
sbag1
(g2
g3
Ntp97
Rp98
(dp99
g7
VClinton Foundation | New York Post
p100
sg9
Vnypost.com/tag/clinton-foundation
p101
sg11
Vhttp://www.bing.com/cr?IG=AF6BC3D30B3B41FB83A9AE57DC9BC5D4&CID=2A462FC06A8168E23D24259F6B686983&rd=1&h=r5h87zZLbYBqAfU_qlEa8nXF_eh_lp4KEBIDYl1SMHw&v=1&r=http%3a%2f%2fnypost.com%2ftag%2fclinton-foundation%2f&p=DevEx,5187.1
p102
sg13
g100
sg14
VThe Clintons are redoubling their commitment to their family foundation \u2014 pledging to donate $200,000 to their family charity after Donald Trump pulled off a stunning victory over Hillary Clinton
p103
sg16
(dp104
g18
g100
sg19
g102
sg47
V2017-03-31T22:33:00
p105
sg49
g101
sg24
g103
sg50
Vhttps://api.cognitive.microsoft.com/api/v5/#WebPages.4
p106
ssg52
g106
sg53
Nsg54
g103
sbag1
(g2
g3
Ntp107
Rp108
(dp109
g7
VCharity watchdog: Clinton Foundation a \u2018slush fund\u2019 | New York Post
p110
sg9
Vnypost.com/2015/04/26/charity-watchdog-clinton-foundation-a-slush-fund
p111
sg11
Vhttp://www.bing.com/cr?IG=AF6BC3D30B3B41FB83A9AE57DC9BC5D4&CID=2A462FC06A8168E23D24259F6B686983&rd=1&h=PTV5Zx2UDkkw6o-r1Ct8LhjE0rUMeff3DjFxckqOL0c&v=1&r=http%3a%2f%2fnypost.com%2f2015%2f04%2f26%2fcharity-watchdog-clinton-foundation-a-slush-fund%2f&p=DevEx,5202.1
p112
sg13
g110
sg14
VThe Clinton Foundation\u2019s finances are so messy that the nation\u2019s most influential charity watchdog put it on its \u201cwatch list\u201d of problematic nonprofits last month.
p113
sg16
(dp114
g71
(lp115
(dp116
g18
VClinton Foundation
p117
sasg18
g110
sg19
g112
sg47
V2017-04-02T15:29:00
p118
sg49
g111
sg24
g113
sg50
Vhttps://api.cognitive.microsoft.com/api/v5/#WebPages.5
p119
ssg52
g119
sg53
Nsg54
g113
sbag1
(g2
g3
Ntp120
Rp121
(dp122
g7
VNewly released Clinton emails highlight State, foundation ties
p123
sg9
Vwww.cnn.com/2016/08/09/politics/hillary-clinton-emails-judicial-watch
p124
sg11
Vhttp://www.bing.com/cr?IG=AF6BC3D30B3B41FB83A9AE57DC9BC5D4&CID=2A462FC06A8168E23D24259F6B686983&rd=1&h=4GkYN2IGFESFuPDzYFd0bKKSjpz9JH0obQv8sK5gilE&v=1&r=http%3a%2f%2fwww.cnn.com%2f2016%2f08%2f09%2fpolitics%2fhillary-clinton-emails-judicial-watch%2findex.html&p=DevEx,5216.1
p125
sg13
g123
sg14
VNewly released emails from Hillary Clinton's tenure as secretary of state raise questions about the nature of the department's relationship with the Clinton Foundation.
p126
sg16
(dp127
g18
g123
sg19
g125
sg47
V2017-03-31T05:54:00
p128
sg49
g124
sg24
g126
sg50
Vhttps://api.cognitive.microsoft.com/api/v5/#WebPages.6
p129
ssg52
g129
sg53
Nsg54
g126
sbag1
(g2
g3
Ntp130
Rp131
(dp132
g7
VThe Clinton Foundation Is Dead \u2014 But The Case Against Hillary Isn't ...
p133
sg9
Vwww.investors.com/politics/editorials/the-clinton-foundation-is...
p134
sg11
Vhttp://www.bing.com/cr?IG=AF6BC3D30B3B41FB83A9AE57DC9BC5D4&CID=2A462FC06A8168E23D24259F6B686983&rd=1&h=7ePDAoxu1Bnb7YzDTO5XwIKnXwsrftuJ5sNvo8hk8yk&v=1&r=http%3a%2f%2fwww.investors.com%2fpolitics%2feditorials%2fthe-clinton-foundation-is-dead-but-the-case-against-hillary-isnt%2f&p=DevEx,5229.1
p135
sg13
g133
sg14
VWhile everyone's been gearing up for President Trump's inauguration, the Clinton Foundation made a major announcement this week that went by with almost no
p136
sg16
(dp137
g18
g133
sg19
g135
sg47
V2017-04-02T11:34:00
p138
sg49
g134
sg24
g136
sg50
Vhttps://api.cognitive.microsoft.com/api/v5/#WebPages.7
p139
ssg52
g139
sg53
Nsg54
g136
sbag1
(g2
g3
Ntp140
Rp141
(dp142
g7
VClinton Foundation
p143
sg9
Vhttps://bbis.clintonfoundation.org/2016-contribute/donate_now
p144
sg11
Vhttps://www.bing.com/cr?IG=AF6BC3D30B3B41FB83A9AE57DC9BC5D4&CID=2A462FC06A8168E23D24259F6B686983&rd=1&h=uhfC3P5fC0t7ok9rxGcdxaxvnjriN_b7WF7nfivDCow&v=1&r=https%3a%2f%2fbbis.clintonfoundation.org%2f2016-contribute%2fdonate_now&p=DevEx,5243.1
p145
sg13
g143
sg14
VYour contributions are vital to the Clinton Foundation's ongoing work around the world. Your generous support will benefit the Clinton Foundation's programs and operations.
p146
sg16
(dp147
g18
g143
sg19
g145
sg47
V2017-03-30T21:56:00
p148
sg49
g144
sg24
g146
sg50
Vhttps://api.cognitive.microsoft.com/api/v5/#WebPages.8
p149
ssg52
g149
sg53
Nsg54
g146
sbag1
(g2
g3
Ntp150
Rp151
(dp152
g7
VClinton Foundation - Home | Facebook
p153
sg9
Vhttps://www.facebook.com/ClintonFoundation
p154
sg11
Vhttps://www.bing.com/cr?IG=AF6BC3D30B3B41FB83A9AE57DC9BC5D4&CID=2A462FC06A8168E23D24259F6B686983&rd=1&h=t0qTb3QWSG8_6p0LTf4D1o00zhlgSXSzS04tOMh_m40&v=1&r=https%3a%2f%2fwww.facebook.com%2fClintonFoundation&p=DevEx,5258.1
p155
sg13
g153
sg14
VThe Bill, Hillary & Chelsea Clinton Foundation transforms lives and communities from what they are today to what they can be, tomorrow.
p156
sg16
(dp157
g18
g153
sg19
g155
sg47
V2017-03-29T22:42:00
p158
sg49
g154
sg24
g156
sg50
Vhttps://api.cognitive.microsoft.com/api/v5/#WebPages.9
p159
ssg52
g159
sg53
Nsg54
g156
sbag1
(g2
g3
Ntp160
Rp161
(dp162
g7
VCharity Navigator - Rating for The Clinton Foundation
p163
sg9
Vhttps://www.charitynavigator.org/index.cfm?bay=search.summary&...
p164
sg11
Vhttps://www.bing.com/cr?IG=AF6BC3D30B3B41FB83A9AE57DC9BC5D4&CID=2A462FC06A8168E23D24259F6B686983&rd=1&h=9PyAi9U9fXXIjkvvQVHnJ2fsU87xl8Qs-8xhpqYBx5g&v=1&r=https%3a%2f%2fwww.charitynavigator.org%2findex.cfm%3fbay%3dsearch.summary%26orgid%3d16680&p=DevEx,5271.1
p165
sg13
g163
sg14
VThe Clinton Foundation is a International charity rated 4 of 4 stars by Charity Navigator. Located in New York, NY, it is one of 8,587 organizations rated by Charity Navigator.
p166
sg16
(dp167
g18
g163
sg19
g165
sg47
V2017-04-03T21:25:00
p168
sg49
g164
sg24
g166
sg50
Vhttps://api.cognitive.microsoft.com/api/v5/#WebPages.10
p169
ssg52
g169
sg53
Nsg54
g166
sbag1
(g2
g3
Ntp170
Rp171
(dp172
g7
VClinton Foundation (@ClintonFdn) | Twitter
p173
sg9
Vhttps://twitter.com/ClintonFdn
p174
sg11
Vhttps://www.bing.com/cr?IG=AF6BC3D30B3B41FB83A9AE57DC9BC5D4&CID=2A462FC06A8168E23D24259F6B686983&rd=1&h=jkCfzETEZCgNq2RL5vEakgRFW3CCb9GOP0D9N6XNzBM&v=1&r=https%3a%2f%2ftwitter.com%2fClintonFdn&p=DevEx,5290.1
p175
sg13
g173
sg14
VClinton Foundation Verified account @ClintonFdn. The Bill, Hillary & Chelsea Clinton Foundation transforms lives and communities from what they are today to what they can be, tomorrow.
p176
sg16
(dp177
g71
(lp178
(dp179
g18
VClinton Foundation
p180
sasg18
g173
sg19
g175
sg47
V2017-03-27T05:48:00
p181
sg49
g174
sg24
g176
sg50
Vhttps://api.cognitive.microsoft.com/api/v5/#WebPages.11
p182
ssg52
g182
sg53
Nsg54
g176
sbag1
(g2
g3
Ntp183
Rp184
(dp185
g7
VClinton Foundation\u2013State Department controversy - Wikipedia
p186
sg9
Vhttps://en.wikipedia.org/wiki/Clinton_Foundation\u2013State_Department...
p187
sg11
Vhttps://www.bing.com/cr?IG=AF6BC3D30B3B41FB83A9AE57DC9BC5D4&CID=2A462FC06A8168E23D24259F6B686983&rd=1&h=bl4rgteS7ZGyjn27SqAVDwii8r2-HF6B6hZW2qG_4EU&v=1&r=https%3a%2f%2fen.wikipedia.org%2fwiki%2fClinton_Foundation%25E2%2580%2593State_Department_controversy&p=DevEx,5307.1
p188
sg13
g186
sg14
VDuring Hillary Clinton\u2019s tenure as Secretary of State, a number of individuals, organizations, and countries allegedly contributed to the Clinton Foundation either prior to, or while, pursuing interests through ordinary channels with the U.S. State Department.
p189
sg16
(dp190
g63
(dp191
g65
VText under CC-BY-SA license
p192
sg67
(dp193
g19
Vhttp://www.bing.com/cr?IG=AF6BC3D30B3B41FB83A9AE57DC9BC5D4&CID=2A462FC06A8168E23D24259F6B686983&rd=1&h=tJYnHtBaEymlKo_fRl0wo_ZHu4dAaCwVMH_BvcixOgM&v=1&r=http%3a%2f%2fcreativecommons.org%2flicenses%2fby-sa%2f3.0%2f&p=DevEx,5978.1
p194
sg18
VCC-BY-SA
p195
sssg18
g186
sg19
g188
sg47
V2017-03-22T22:24:00
p196
sg49
g187
sg24
g189
sg50
Vhttps://api.cognitive.microsoft.com/api/v5/#WebPages.12
p197
ssg52
g197
sg53
Nsg54
g189
sbag1
(g2
g3
Ntp198
Rp199
(dp200
g7
VDonald Trump Has Been Attacking The Clinton Foundation. Here's How It ...
p201
sg9
Vwww.npr.org/2016/08/25/491282347
p202
sg11
Vhttp://www.bing.com/cr?IG=AF6BC3D30B3B41FB83A9AE57DC9BC5D4&CID=2A462FC06A8168E23D24259F6B686983&rd=1&h=Rv6qlTuPnf24TZ1VsCzI9ac_Gsp-Pim_LUXEnRW9Lck&v=1&r=http%3a%2f%2fwww.npr.org%2f2016%2f08%2f25%2f491282347%2fsaving-lives-or-selling-access-explaining-the-clinton-foundation&p=DevEx,5320.1
p203
sg13
g201
sg14
VHillary Clinton has defended the Clinton Foundation against allegations that it was a front for a "pay to play" scheme while she was secretary of state.
p204
sg16
(dp205
g18
g201
sg19
g203
sg47
V2017-03-29T15:10:00
p206
sg49
g202
sg24
g204
sg50
Vhttps://api.cognitive.microsoft.com/api/v5/#WebPages.13
p207
ssg52
g207
sg53
Nsg54
g204
sbag1
(g2
g3
Ntp208
Rp209
(dp210
g7
VFBI Clinton Foundation probe finds 'avalanche' of corruption evidence ...
p211
sg9
Vwww.dailymail.co.uk/...fueled-FBI-s-desire-probe-Clinton-Foundation...
p212
sg11
Vhttp://www.bing.com/cr?IG=AF6BC3D30B3B41FB83A9AE57DC9BC5D4&CID=2A462FC06A8168E23D24259F6B686983&rd=1&h=iJ0P2AqY_x9RWiaqkARH5STSGLtDefOThcahJqSrEuw&v=1&r=http%3a%2f%2fwww.dailymail.co.uk%2fnews%2farticle-3901376%2fSecret-recordings-fueled-FBI-s-desire-probe-Clinton-Foundation-case-moves-likely-indictment.html&p=DevEx,5333.1
p213
sg13
g211
sg14
VAn FBI investigation into the Clinton Foundation is advancing rapidly - unless the Justice Department interferes, two sources familiar with the probe told Fox News.
p214
sg16
(dp215
g18
g211
sg19
g213
sg47
V2017-04-02T21:01:00
p216
sg49
g212
sg24
g214
sg50
Vhttps://api.cognitive.microsoft.com/api/v5/#WebPages.14
p217
ssg52
g217
sg53
Nsg54
g214
sbag1
(g2
g3
Ntp218
Rp219
(dp220
g7
VClinton Foundation - YouTube
p221
sg9
Vwww.youtube.com/user/clintonfoundationorg
p222
sg11
Vhttp://www.bing.com/cr?IG=AF6BC3D30B3B41FB83A9AE57DC9BC5D4&CID=2A462FC06A8168E23D24259F6B686983&rd=1&h=_FrBtsUyhl96rklCJBZlkUzRlta2_SFK6h-kfXz2d4E&v=1&r=http%3a%2f%2fwww.youtube.com%2fuser%2fclintonfoundationorg&p=DevEx,5346.1
p223
sg13
g221
sg14
VThe Clinton Foundation convenes businesses, governments, NGOs, and individuals to improve global health and wellness, increase opportunity for women and girl...
p224
sg16
(dp225
g18
g221
sg19
g223
sg47
V2017-04-02T01:40:00
p226
sg49
g222
sg24
g224
sg50
Vhttps://api.cognitive.microsoft.com/api/v5/#WebPages.15
p227
ssg52
g227
sg53
Nsg54
g224
sbag1
(g2
g3
Ntp228
Rp229
(dp230
g7
VThe Clinton Foundation Shuts Down Clinton Global Initiative
p231
sg9
Vobserver.com/2017/01/the-clinton-fo
p232
sg11
Vhttp://www.bing.com/cr?IG=AF6BC3D30B3B41FB83A9AE57DC9BC5D4&CID=2A462FC06A8168E23D24259F6B686983&rd=1&h=j2oqwpFJiLXhjo68UyK14-QoEUAk-7SYM1RRGCddscY&v=1&r=http%3a%2f%2fobserver.com%2f2017%2f01%2fthe-clinton-foundation-shuts-down-clinton-global-initiative%2f&p=DevEx,5359.1
p233
sg13
g231
sg14
VThe Clinton Foundation\u2019s long list of wealthy donors and foreign government contributors during the 2016 elections provoked critics to allege conflicts of interests.
p234
sg16
(dp235
g18
g231
sg19
g233
sg47
V2017-04-01T14:38:00
p236
sg49
g232
sg24
g234
sg50
Vhttps://api.cognitive.microsoft.com/api/v5/#WebPages.16
p237
ssg52
g237
sg53
Nsg54
g234
sbag1
(g2
g3
Ntp238
Rp239
(dp240
g7
VWhere Does Clinton Foundation Money Go? - FactCheck.org
p241
sg9
Vwww.factcheck.org/2015/06/wher
p242
sg11
Vhttp://www.bing.com/cr?IG=AF6BC3D30B3B41FB83A9AE57DC9BC5D4&CID=2A462FC06A8168E23D24259F6B686983&rd=1&h=o4K8nvHEN7Nxo8tHjWBJt1nQb2rU2PIu5eK_8A5k2S4&v=1&r=http%3a%2f%2fwww.factcheck.org%2f2015%2f06%2fwhere-does-clinton-foundation-money-go%2f&p=DevEx,5373.1
p243
sg13
g241
sg14
VRepublican presidential candidate Carly Fiorina says that "so little" of the charitable donations to the Clinton Foundation "actually go to charitable works" -- a figure CARLY for America later put at about 6 percent of its annual revenues -- but Fiorina is simply wrong.
p244
sg16
(dp245
g18
g241
sg19
g243
sg47
V2017-04-03T10:57:00
p246
sg49
g242
sg24
g244
sg50
Vhttps://api.cognitive.microsoft.com/api/v5/#WebPages.17
p247
ssg52
g247
sg53
Nsg54
g244
sbag1
(g2
g3
Ntp248
Rp249
(dp250
g7
VThe Clinton Foundation's gender pay gap worried campaign
p251
sg9
Vmoney.cnn.com/2016/10/21/news/clinton-paid-women-less/index.html
p252
sg11
Vhttp://www.bing.com/cr?IG=AF6BC3D30B3B41FB83A9AE57DC9BC5D4&CID=2A462FC06A8168E23D24259F6B686983&rd=1&h=05ML5rF_25vlj5TUoOyGV5jdO_OltGNDPha90oUxmuc&v=1&r=http%3a%2f%2fmoney.cnn.com%2f2016%2f10%2f21%2fnews%2fclinton-paid-women-less%2findex.html&p=DevEx,5386.1
p253
sg13
g251
sg14
VHillary Clinton says men and women should make equal pay. But the Clinton Foundation's leadership team had an $81,000 gender pay gap, according to the most recent figures available.
p254
sg16
(dp255
g18
g251
sg19
g253
sg47
V2017-04-03T19:16:00
p256
sg49
g252
sg24
g254
sg50
Vhttps://api.cognitive.microsoft.com/api/v5/#WebPages.18
p257
ssg52
g257
sg53
Nsg54
g254
sbag1
(g2
g3
Ntp258
Rp259
(dp260
g7
VClinton Foundation - The Economic Times
p261
sg9
Veconomictimes.indiatimes.com/topic/Clinton-Foundation
p262
sg11
Vhttp://www.bing.com/cr?IG=AF6BC3D30B3B41FB83A9AE57DC9BC5D4&CID=2A462FC06A8168E23D24259F6B686983&rd=1&h=uPHci-W7ISzwZBAD3vNZZPbxPEjjCdvuZid7bA9rAOQ&v=1&r=http%3a%2f%2feconomictimes.indiatimes.com%2ftopic%2fClinton-Foundation&p=DevEx,5400.1
p263
sg13
g261
sg14
VClinton Foundation Latest Breaking News, Pictures, Videos, and Special Reports from The Economic Times. Clinton Foundation Blogs, Comments and Archive News on Economictimes.com
p264
sg16
(dp265
g18
g261
sg19
g263
sg47
V2017-03-31T15:33:00
p266
sg49
g262
sg24
g264
sg50
Vhttps://api.cognitive.microsoft.com/api/v5/#WebPages.19
p267
ssg52
g267
sg53
Nsg54
g264
sbag1
(g2
g3
Ntp268
Rp269
(dp270
g7
VClinton Foundation Dead as Contributions Dry Up?
p271
sg9
Vwww.snopes.com/clinton-foundation-dead-contrib
p272
sg11
Vhttp://www.bing.com/cr?IG=AF6BC3D30B3B41FB83A9AE57DC9BC5D4&CID=2A462FC06A8168E23D24259F6B686983&rd=1&h=5Z75dhpzl_fpk9aoKGMtvfqyhWtlKIMrsJSk3FcKQEA&v=1&r=http%3a%2f%2fwww.snopes.com%2fclinton-foundation-dead-contributions-dry%2f&p=DevEx,5413.1
p273
sg13
g271
sg14
VThe Clinton Global Initiative is downsizing and ending annual meetings as of 2017, as announced by former President Bill Clinton in a 22 August 2016 letter. On 16 January 2017, Fox News reported that the Clinton Global Initiative (CGI), an offshoot of the Clinton Foundation charitable organization
p274
sg16
(dp275
g18
g271
sg19
g273
sg47
V2017-04-03T00:03:00
p276
sg49
g272
sg24
g274
sg50
Vhttps://api.cognitive.microsoft.com/api/v5/#WebPages.20
p277
ssg52
g277
sg53
Nsg54
g274
sbag1
(g2
g3
Ntp278
Rp279
(dp280
g7
VClinton Foundation Corruption Should Be Next for the FBI
p281
sg9
Vobserver.com/2016/07/up-next-for-the-fbi-clinton-foundation-corruption
p282
sg11
Vhttp://www.bing.com/cr?IG=AF6BC3D30B3B41FB83A9AE57DC9BC5D4&CID=2A462FC06A8168E23D24259F6B686983&rd=1&h=rUl3BjdRBjR-XKOnE7X9pF8SyIbAGndHaC8mN25KW_M&v=1&r=http%3a%2f%2fobserver.com%2f2016%2f07%2fup-next-for-the-fbi-clinton-foundation-corruption%2f&p=DevEx,5426.1
p283
sg13
g281
sg14
VFor all the millions that have passed through the Clinton Foundation, it will be hard to evade indictment if Hillary is elected president.
p284
sg16
(dp285
g18
g281
sg19
g283
sg47
V2017-04-03T19:32:00
p286
sg49
g282
sg24
g284
sg50
Vhttps://api.cognitive.microsoft.com/api/v5/#WebPages.21
p287
ssg52
g287
sg53
Nsg54
g284
sbag1
(g2
g3
Ntp288
Rp289
(dp290
g7
VClinton Foundation - The #Pizzagate Wiki
p291
sg9
Vpizzagate.wiki/Clinton_Foundation
p292
sg11
Vhttp://www.bing.com/cr?IG=AF6BC3D30B3B41FB83A9AE57DC9BC5D4&CID=2A462FC06A8168E23D24259F6B686983&rd=1&h=H9tbuUPT4vXIrffbfYFngksP7YBzjmN3WNBJbM8aXrw&v=1&r=http%3a%2f%2fpizzagate.wiki%2fClinton_Foundation&p=DevEx,5438.1
p293
sg13
g291
sg14
VBackground. The Clinton Foundation (founded in 1997 as the William J. Clinton Foundation), and from 2013, the Bill, Hillary & Chelsea Clinton Foundation is a nonprofit corporation under section 501(c)(3) of the U.S. tax code.
p294
sg16
(dp295
g18
g291
sg19
g293
sg47
V2017-04-03T20:30:00
p296
sg49
g292
sg24
g294
sg50
Vhttps://api.cognitive.microsoft.com/api/v5/#WebPages.22
p297
ssg52
g297
sg53
Nsg54
g294
sbag1
(g2
g3
Ntp298
Rp299
(dp300
g7
VCash Flowed to Clinton Foundation Amid Russian Uranium Deal - The New ...
p301
sg9
Vhttps://www.nytimes.com/2015/04/24/us/cash-flowed-to-clinton...
p302
sg11
Vhttps://www.bing.com/cr?IG=AF6BC3D30B3B41FB83A9AE57DC9BC5D4&CID=2A462FC06A8168E23D24259F6B686983&rd=1&h=GYXp-o8HTg9DTd2ai3aTVSooiW93sI0OR8z6Dki2WNU&v=1&r=https%3a%2f%2fwww.nytimes.com%2f2015%2f04%2f24%2fus%2fcash-flowed-to-clinton-foundation-as-russians-pressed-for-control-of-uranium-company.html&p=DevEx,5450.1
p303
sg13
g301
sg14
VAs the Russians gradually assumed control of Uranium One in three separate transactions from 2009 to 2013, Canadian records show, a flow of cash made its way to the Clinton Foundation.
p304
sg16
(dp305
g18
g301
sg19
g303
sg47
V2017-03-30T14:54:00
p306
sg49
g302
sg24
g304
sg50
Vhttps://api.cognitive.microsoft.com/api/v5/#WebPages.23
p307
ssg52
g307
sg53
Nsg54
g304
sbag1
(g2
g3
Ntp308
Rp309
(dp310
g7
VFoundation Ties Bedevil Hillary Clinton\u2019s Presidential Campaign
p311
sg9
Vhttps://www.nytimes.com/2016/08/21/us/politics/hillary-clinton...
p312
sg11
Vhttps://www.bing.com/cr?IG=AF6BC3D30B3B41FB83A9AE57DC9BC5D4&CID=2A462FC06A8168E23D24259F6B686983&rd=1&h=ZvEjatpzS_yxeldnvrfBPC9X64hylpcjtPBVZ-qcOaI&v=1&r=https%3a%2f%2fwww.nytimes.com%2f2016%2f08%2f21%2fus%2fpolitics%2fhillary-clinton-presidential-campaign-charity.html&p=DevEx,5461.1
p313
sg13
g311
sg14
VThe Clinton Foundation has accepted tens of millions of dollars from countries that the State Department \u2014 before, during and after Mrs. Clinton\u2019s time as secretary \u2014 criticized for their records on sex discrimination and other human-rights issues.
p314
sg16
(dp315
g18
g311
sg19
g313
sg47
V2017-03-27T08:52:00
p316
sg49
g312
sg24
g314
sg50
Vhttps://api.cognitive.microsoft.com/api/v5/#WebPages.24
p317
ssg52
g317
sg53
Nsg54
g314
sbag1
(g2
g3
Ntp318
Rp319
(dp320
g7
VHillary Clinton 2016: Clinton Foundation in tailspin - POLITICO
p321
sg9
Vwww.politico.com/story/2015/04/clinton-foundation-bill-hillary...
p322
sg11
Vhttp://www.bing.com/cr?IG=AF6BC3D30B3B41FB83A9AE57DC9BC5D4&CID=2A462FC06A8168E23D24259F6B686983&rd=1&h=v1NtfqEVFTVixW3kbFIzJg1vH3N8UdMWk07XC6K2TwQ&v=1&r=http%3a%2f%2fwww.politico.com%2fstory%2f2015%2f04%2fclinton-foundation-bill-hillary-chelsea-117505&p=DevEx,5475.1
p323
sg13
g321
sg14
V2016. Clinton Foundation in campaign tailspin. Donors are having second thoughts about big giving as accusations fly about Hillary Clinton\u2019s role.
p324
sg16
(dp325
g18
g321
sg19
g323
sg47
V2017-04-01T17:44:00
p326
sg49
g322
sg24
g324
sg50
Vhttps://api.cognitive.microsoft.com/api/v5/#WebPages.25
p327
ssg52
g327
sg53
Nsg54
g324
sbag1
(g2
g3
Ntp328
Rp329
(dp330
g7
VPartners in Haiti's Future | The Clinton Foundation
p331
sg9
Vwww.haiti.clintonfoundation.org
p332
sg11
Vhttp://www.bing.com/cr?IG=AF6BC3D30B3B41FB83A9AE57DC9BC5D4&CID=2A462FC06A8168E23D24259F6B686983&rd=1&h=-EZncH3hkkhOKubT3LAMlAYpxAw5LYAzAFcg9QewLbg&v=1&r=http%3a%2f%2fwww.haiti.clintonfoundation.org%2f&p=DevEx,5488.1
p333
sg13
g331
sg14
VThe Clinton Foundation believes that the best way to unlock human potential is through the power of creative collaboration. That is why we build partnerships between businesses, NGOs, and individuals with diverse perspectives and resources to address and solve critical issues affecting individuals and communities \u2013 from combating the effects of climate change to improving the lives of girls and women.
p334
sg16
(dp335
g18
g331
sg19
g333
sg47
V2017-04-02T01:24:00
p336
sg49
g332
sg24
g334
sg50
Vhttps://api.cognitive.microsoft.com/api/v5/#WebPages.26
p337
ssg52
g337
sg53
Nsg54
g334
sbag1
(g2
g3
Ntp338
Rp339
(dp340
g7
VWikiLeaks impact: Clinton Foundation accepts it received $1mn gift from ...
p341
sg9
Vwww.hindustantimes.com/us-presidential-election/wikileaks-impact...
p342
sg11
Vhttp://www.bing.com/cr?IG=AF6BC3D30B3B41FB83A9AE57DC9BC5D4&CID=2A462FC06A8168E23D24259F6B686983&rd=1&h=qGPHgfZJBtY8MMdtXpCuavLht_bzMpXqCgTQ2kj2C2k&v=1&r=http%3a%2f%2fwww.hindustantimes.com%2fus-presidential-election%2fwikileaks-impact-clinton-foundation-accepts-it-received-1mn-gift-from-qatar%2fstory-mCmgXGpP0TDg0tVau6ewIJ.html&p=DevEx,5500.1
p343
sg13
g341
sg14
VThe Clinton Foundation has confirmed it accepted a $1 million gift from Qatar while Hillary Clinton was US secretary of state without informing the State Department, even though she had promised to let the agency review new or significantly increased support from foreign governments.
p344
sg16
(dp345
g18
g341
sg19
g343
sg47
V2017-04-02T19:29:00
p346
sg49
g342
sg24
g344
sg50
Vhttps://api.cognitive.microsoft.com/api/v5/#WebPages.27
p347
ssg52
g347
sg53
Nsg54
g344
sbag1
(g2
g3
Ntp348
Rp349
(dp350
g7
VForeign Government Gifts to Clinton Foundation on the Rise
p351
sg9
Vhttps://www.wsj.com/articles/foreign-government-gifts-to-clinton...
p352
sg11
Vhttps://www.bing.com/cr?IG=AF6BC3D30B3B41FB83A9AE57DC9BC5D4&CID=2A462FC06A8168E23D24259F6B686983&rd=1&h=CE4eINDgf_Qy6-cBGnm1WxwwJo6Y9BZNKuIe-40yFnI&v=1&r=https%3a%2f%2fwww.wsj.com%2farticles%2fforeign-government-gifts-to-clinton-foundation-on-the-rise-1424223031&p=DevEx,5511.1
p353
sg13
g351
sg14
VThe Clinton Foundation has dropped its self-imposed ban on collecting funds from foreign governments and is winning contributions at an accelerating rate, raising ethical questions as Hillary Clinton ramps up her expected bid for the presidency.
p354
sg16
(dp355
g71
(lp356
(dp357
g18
VThe Wall Street Journal
p358
sasg18
g351
sg19
g353
sg47
V2017-04-01T20:20:00
p359
sg49
g352
sg24
g354
sg50
Vhttps://api.cognitive.microsoft.com/api/v5/#WebPages.28
p360
ssg52
g360
sg53
Nsg54
g354
sbag1
(g2
g3
Ntp361
Rp362
(dp363
g7
VHillary and the Clinton Foundation: Exemplars of America\u2019s Political Rot
p364
sg9
Vwww.counterpunch.org/2016/08/29/hillary-and-the-clinton-foundation...
p365
sg11
Vhttp://www.bing.com/cr?IG=AF6BC3D30B3B41FB83A9AE57DC9BC5D4&CID=2A462FC06A8168E23D24259F6B686983&rd=1&h=EmB7_7prZwOMBgcM8OdHLGRWwO9mcCWN8x9Np_gTqfU&v=1&r=http%3a%2f%2fwww.counterpunch.org%2f2016%2f08%2f29%2fhillary-and-the-clinton-foundation-exemplars-of-americas-political-rot%2f&p=DevEx,5523.1
p366
sg13
g364
sg14
VHillary Clinton may be enjoying a comfortable lead in national polls, but she is far from enjoying a comfortable night\u2019s sleep given the ever-widening maelstrom of scandals engulfing her presidential bid. And while Clinton delights in bloviating about a decades-long \u201cvast, right wing conspiracy\u201d against her, the fact is that it\u2019s the Clinton political machine\u2019s long and storied track record of criminality, duplicity, and corruption that haunts her like Lincoln\u2019s ghost silently ...
p367
sg16
(dp368
g18
g364
sg19
g366
sg47
V2017-04-02T11:28:00
p369
sg49
g365
sg24
g367
sg50
Vhttps://api.cognitive.microsoft.com/api/v5/#WebPages.29
p370
ssg52
g370
sg53
Nsg54
g367
sbag1
(g2
g3
Ntp371
Rp372
(dp373
g7
VHow the Clinton Foundation Got Rich off Poor Haitians - National Review
p374
sg9
Vwww.nationalreview.com/.../hillarys...dinesh-dsouza-clinton-foundation
p375
sg11
Vhttp://www.bing.com/cr?IG=AF6BC3D30B3B41FB83A9AE57DC9BC5D4&CID=2A462FC06A8168E23D24259F6B686983&rd=1&h=6h0F1h8KKLDomtgQnkeYz1NTYKzE7Cx0ZKtkuXRJm8E&v=1&r=http%3a%2f%2fwww.nationalreview.com%2farticle%2f437883%2fhillarys-america-secret-history-democratic-party-dinesh-dsouza-clinton-foundation&p=DevEx,5538.1
p376
sg13
g374
sg14
VIn Hillary\u2019s America: The Secret History of the Democratic Party, Dinesh D\u2019Souza exposes how the Clinton Foundation got rich off poor Haitians.
p377
sg16
(dp378
g18
g374
sg19
g376
sg47
V2017-03-31T10:20:00
p379
sg49
g375
sg24
g377
sg50
Vhttps://api.cognitive.microsoft.com/api/v5/#WebPages.30
p380
ssg52
g380
sg53
Nsg54
g377
sbag1
(g2
g3
Ntp381
Rp382
(dp383
g7
VClinton Foundation | Clinton Email Investigation Timeline
p384
sg9
Vwww.thompsontimeline.com/category/clinton-foundation
p385
sg11
Vhttp://www.bing.com/cr?IG=AF6BC3D30B3B41FB83A9AE57DC9BC5D4&CID=2A462FC06A8168E23D24259F6B686983&rd=1&h=MpMFTh6GDL4IbFfT7feP6kObMJ25Pakdk450p3wJD48&v=1&r=http%3a%2f%2fwww.thompsontimeline.com%2fcategory%2fclinton-foundation%2f&p=DevEx,5550.1
p386
sg13
g384
sg14
VDemocrat Bill Clinton is the president of the US for eight years and his wife Hillary Clinton is the first lady.
p387
sg16
(dp388
g18
g384
sg19
g386
sg47
V2017-03-19T22:59:00
p389
sg49
g385
sg24
g387
sg50
Vhttps://api.cognitive.microsoft.com/api/v5/#WebPages.31
p390
ssg52
g390
sg53
Nsg54
g387
sbag1
(g2
g3
Ntp391
Rp392
(dp393
g7
VDid the Clinton Foundation pay for Chelsea\u2019s wedding? - The Washington Post
p394
sg9
Vhttps://www.washingtonpost.com/news/fact-checker/wp/2017/01/04/did...
p395
sg11
Vhttps://www.bing.com/cr?IG=AF6BC3D30B3B41FB83A9AE57DC9BC5D4&CID=2A462FC06A8168E23D24259F6B686983&rd=1&h=WVgcT1YQ1JpL0yd3ifwLqZ5AAxNjlMZ0DlJE8QEK2is&v=1&r=https%3a%2f%2fwww.washingtonpost.com%2fnews%2ffact-checker%2fwp%2f2017%2f01%2f04%2fdid-the-clinton-foundation-pay-for-chelseas-wedding%2f&p=DevEx,5563.1
p396
sg13
g394
sg14
V\u201cClinton aide says Foundation paid for Chelsea\u2019s wedding.\u201d \u2013Fox News headline, Nov. 6, 2016 This column has been updated The 2016 presidential election is over, but two readers separately sent The Fact Checker a query about a news report that apparently swayed some voters at the last minute
p397
sg16
(dp398
g18
g394
sg19
g396
sg47
V2017-03-25T02:08:00
p399
sg49
g395
sg24
g397
sg50
Vhttps://api.cognitive.microsoft.com/api/v5/#WebPages.32
p400
ssg52
g400
sg53
Nsg54
g397
sbag1
(g2
g3
Ntp401
Rp402
(dp403
g7
VThe Clinton Foundation: A cauldron of conflicts and cronyism - Capital ...
p404
sg9
Vhttps://capitalresearch.org/article/the-clinton-foundation-a...
p405
sg11
Vhttps://www.bing.com/cr?IG=AF6BC3D30B3B41FB83A9AE57DC9BC5D4&CID=2A462FC06A8168E23D24259F6B686983&rd=1&h=QvKJjuZcCsXVrs7_vP8zzN75Aq3TrodHRh_89b6j32o&v=1&r=https%3a%2f%2fcapitalresearch.org%2farticle%2fthe-clinton-foundation-a-cauldron-of-conflicts-and-cronyism%2f&p=DevEx,5575.1
p406
sg13
g404
sg14
VThe Clinton Foundation: A cauldron of conflicts and cronyism. By Barbara Joanna Lucas, Foundation Watch, May 2015 (PDF here) Summary: The former first family\u2019s philanthropy has always been a vehicle to promote the careers of the Clintons.
p407
sg16
(dp408
g18
g404
sg19
g406
sg47
V2017-04-01T20:39:00
p409
sg49
g405
sg24
g407
sg50
Vhttps://api.cognitive.microsoft.com/api/v5/#WebPages.33
p410
ssg52
g410
sg53
Nsg54
g407
sbag1
(g2
g3
Ntp411
Rp412
(dp413
g7
VMemo Details Ties Between Consulting Firm and Clinton Foundation
p414
sg9
Vfreebeacon.com/politics/clinton...consulting-firm-clinton-foundation
p415
sg11
Vhttp://www.bing.com/cr?IG=AF6BC3D30B3B41FB83A9AE57DC9BC5D4&CID=2A462FC06A8168E23D24259F6B686983&rd=1&h=qOdFnaful9j8tkYprZZusDBHrTjIYwk_jO6IAe0OOYw&v=1&r=http%3a%2f%2ffreebeacon.com%2fpolitics%2fclinton-aides-memo-details-ties-consulting-firm-clinton-foundation%2f&p=DevEx,5587.1
p416
sg13
g414
sg14
VClinton Aide\u2019s Memo Details Ties Between Consulting Firm and Clinton Foundation Doug Band spelled out his efforts to secure foundation donations from consulting clients
p417
sg16
(dp418
g18
g414
sg19
g416
sg47
V2017-04-02T20:47:00
p419
sg49
g415
sg24
g417
sg50
Vhttps://api.cognitive.microsoft.com/api/v5/#WebPages.34
p420
ssg52
g420
sg53
Nsg54
g417
sbag1
(g2
g3
Ntp421
Rp422
(dp423
g7
VClinton Foundation Denies Hacking Claim - Fortune.com
p424
sg9
Vfortune.com/2016/10/04/clinton-foundation-guccifer-hack-claim
p425
sg11
Vhttp://www.bing.com/cr?IG=AF6BC3D30B3B41FB83A9AE57DC9BC5D4&CID=2A462FC06A8168E23D24259F6B686983&rd=1&h=G-z3A0phnBT2XxELEGfBleYiT6Ng93Bal-iLNwpxKxA&v=1&r=http%3a%2f%2ffortune.com%2f2016%2f10%2f04%2fclinton-foundation-guccifer-hack-claim%2f&p=DevEx,5602.1
p426
sg13
g424
sg14
VThe Clinton Foundation denies that Guccifer 2.0, an online persona widely believed to be a Russian front, dumped data from its servers.
p427
sg16
(dp428
g18
g424
sg19
g426
sg47
V2017-04-01T19:52:00
p429
sg49
g425
sg24
g427
sg50
Vhttps://api.cognitive.microsoft.com/api/v5/#WebPages.35
p430
ssg52
g430
sg53
Nsg54
g427
sbag1
(g2
g3
Ntp431
Rp432
(dp433
g7
VWhy the Clinton Foundation controversies won't go away
p434
sg9
Vmoney.cnn.com/2016/06/22/news/clinton-foundation
p435
sg11
Vhttp://www.bing.com/cr?IG=AF6BC3D30B3B41FB83A9AE57DC9BC5D4&CID=2A462FC06A8168E23D24259F6B686983&rd=1&h=jLTJap19AeS78lu3aLA_xDxo_CAViPBWf-CO2slXvFQ&v=1&r=http%3a%2f%2fmoney.cnn.com%2f2016%2f06%2f22%2fnews%2fclinton-foundation%2findex.html&p=DevEx,5616.1
p436
sg13
g434
sg14
VHillary Clinton's political opponents argue the Clinton Foundation created conflicts of interest when Clinton was Secretary of State -- and could do so again if she's elected president.
p437
sg16
(dp438
g18
g434
sg19
g436
sg47
V2017-03-28T23:28:00
p439
sg49
g435
sg24
g437
sg50
Vhttps://api.cognitive.microsoft.com/api/v5/#WebPages.36
p440
ssg52
g440
sg53
Nsg54
g437
sbag1
(g2
g3
Ntp441
Rp442
(dp443
g7
VClinton Foundation's Alleged Pay To Play Or Its Private Benefits: Which ...
p444
sg9
Vhttps://www.forbes.com/sites/robertwood/2016/08/23/clinton...
p445
sg11
Vhttps://www.bing.com/cr?IG=AF6BC3D30B3B41FB83A9AE57DC9BC5D4&CID=2A462FC06A8168E23D24259F6B686983&rd=1&h=JRGxd4LcMjCylQKtpHsvN5wd5WTvMYqbiWd94EfSDq4&v=1&r=https%3a%2f%2fwww.forbes.com%2fsites%2frobertwood%2f2016%2f08%2f23%2fclinton-foundations-alleged-pay-to-play-or-its-private-benefits-which-hurts-hillary-more%2f&p=DevEx,5629.1
p446
sg13
g444
sg14
VThe Clinton Foundation may have played a big role as an entree to the State Department. And did Bill or Hillary benefit? These are two distinct issues.
p447
sg16
(dp448
g18
g444
sg19
g446
sg47
V2017-03-29T15:12:00
p449
sg49
g445
sg24
g447
sg50
Vhttps://api.cognitive.microsoft.com/api/v5/#WebPages.37
p450
ssg52
g450
sg53
Nsg54
g447
sbag1
(g2
g3
Ntp451
Rp452
(dp453
g7
VThe Clinton Foundation: Whistleblower Charles Ortel Claims It Is \u2018The ...
p454
sg9
Vwww.inquisitr.com/3178869/the-clinton-foundation-whistleblower-
p455
sg11
Vhttp://www.bing.com/cr?IG=AF6BC3D30B3B41FB83A9AE57DC9BC5D4&CID=2A462FC06A8168E23D24259F6B686983&rd=1&h=eq7NcoQNyWhpKMKyggnW0vJc4KAP_VLf38-xPzjHpsA&v=1&r=http%3a%2f%2fwww.inquisitr.com%2f3178869%2fthe-clinton-foundation-whistleblower-charles-ortel-claims-it-is-the-largest-unprosecuted-charity-fraud-ever-attempted%2f&p=DevEx,5642.1
p456
sg13
g454
sg14
VThe Clinton Foundation has been making the news a bit more during the election, but for the most part, this $200 billion dollar charity institution has flown
p457
sg16
(dp458
g18
g454
sg19
g456
sg47
V2017-04-02T12:35:00
p459
sg49
g455
sg24
g457
sg50
Vhttps://api.cognitive.microsoft.com/api/v5/#WebPages.38
p460
ssg52
g460
sg53
Nsg54
g457
sbag1
(g2
g3
Ntp461
Rp462
(dp463
g7
VClinton Foundation admits it didn't notify State Department of $1 ...
p464
sg9
Vwww.foxnews.com/politics/2016/11/06/clinton-foundation-admits-it...
p465
sg11
Vhttp://www.bing.com/cr?IG=AF6BC3D30B3B41FB83A9AE57DC9BC5D4&CID=2A462FC06A8168E23D24259F6B686983&rd=1&h=jbBt36O09K3QDpIi7m7K0R-GlxPtrBGgVO0Pgux6LKs&v=1&r=http%3a%2f%2fwww.foxnews.com%2fpolitics%2f2016%2f11%2f06%2fclinton-foundation-admits-it-didnt-notify-state-department-1-million-qatar-gift.html&p=DevEx,5657.1
p466
sg13
g464
sg14
VThe Clinton Foundation has said it accepted a $1 million gift from the Qatari government without notifying the State Department that it had done so, an apparent violation of an ethics agreement Hillary Clinton signed when she became Secretary of State in 2009.
p467
sg16
(dp468
g18
g464
sg19
g466
sg47
V2017-04-04T03:01:00
p469
sg49
g465
sg24
g467
sg50
Vhttps://api.cognitive.microsoft.com/api/v5/#WebPages.39
p470
ssg52
g470
sg53
Nsg54
g467
sbag1
(g2
g3
Ntp471
Rp472
(dp473
g7
VMothball the Clinton Foundation: Our view - usatoday.com
p474
sg9
Vwww.usatoday.com/.../2016/08/23/hillary-clinton-foundation.../89226920
p475
sg11
Vhttp://www.bing.com/cr?IG=AF6BC3D30B3B41FB83A9AE57DC9BC5D4&CID=2A462FC06A8168E23D24259F6B686983&rd=1&h=TSKyylU9UXvEv6-TxZG5ZsnVPeWlL7M0bARxlW6LU_8&v=1&r=http%3a%2f%2fwww.usatoday.com%2fstory%2fopinion%2f2016%2f08%2f23%2fhillary-clinton-foundation-donald-trump-editorials-debates%2f89226920%2f&p=DevEx,5670.1
p476
sg13
g474
sg14
VWhen Clinton became secretary in 2009, new ethical quandaries arose that few people imagined at the time. She gave key State Department aides permission to work for the Clinton Foundation while they worked at State and drew paychecks from a Clinton-affiliated for-profit consulting firm.
p477
sg16
(dp478
g18
g474
sg19
g476
sg47
V2017-04-03T23:43:00
p479
sg49
g475
sg24
g477
sg50
Vhttps://api.cognitive.microsoft.com/api/v5/#WebPages.40
p480
ssg52
g480
sg53
Nsg54
g477
sbag1
(g2
g3
Ntp481
Rp482
(dp483
g7
VClinton Foundation | World news | The Guardian
p484
sg9
Vhttps://www.theguardian.com/world/clinton-foundation
p485
sg11
Vhttps://www.bing.com/cr?IG=AF6BC3D30B3B41FB83A9AE57DC9BC5D4&CID=2A462FC06A8168E23D24259F6B686983&rd=1&h=fj8lMuTZIztz-uicipCuSCH4CfojgZk9Rxj-Wm2hRMY&v=1&r=https%3a%2f%2fwww.theguardian.com%2fworld%2fclinton-foundation&p=DevEx,5682.1
p486
sg13
g484
sg14
VNews agency draws up new guidelines following controversy over tweet about its story on the presidential candidate and the Clinton Foundation
p487
sg16
(dp488
g18
g484
sg19
g486
sg47
V2017-04-03T16:44:00
p489
sg49
g485
sg24
g487
sg50
Vhttps://api.cognitive.microsoft.com/api/v5/#WebPages.41
p490
ssg52
g490
sg53
Nsg54
g487
sbag1
(g2
g3
Ntp491
Rp492
(dp493
g7
VClinton Foundation
p494
sg9
Vhttps://bbis.clintonfoundation.org/Tribute
p495
sg11
Vhttps://www.bing.com/cr?IG=AF6BC3D30B3B41FB83A9AE57DC9BC5D4&CID=2A462FC06A8168E23D24259F6B686983&rd=1&h=AoQUlafZdfA_hcLJqaUYC5N5_NCvpmcaKeuaryOSBtU&v=1&r=https%3a%2f%2fbbis.clintonfoundation.org%2fTribute&p=DevEx,5695.1
p496
sg13
g494
sg14
VMake a donation to the Clinton Foundation in honor of a family member, friend, colleague, or a special event like a wedding, graduation, or birthday.
p497
sg16
(dp498
g18
g494
sg19
g496
sg47
V2017-03-15T21:25:00
p499
sg49
g495
sg24
g497
sg50
Vhttps://api.cognitive.microsoft.com/api/v5/#WebPages.42
p500
ssg52
g500
sg53
Nsg54
g497
sbag1
(g2
g3
Ntp501
Rp502
(dp503
g7
VFrom Whitewater to Benghazi: A Clinton-Scandal Primer
p504
sg9
Vhttps://www.theatlantic.com/politics/archive/2016/11/tracking-the...
p505
sg11
Vhttps://www.bing.com/cr?IG=AF6BC3D30B3B41FB83A9AE57DC9BC5D4&CID=2A462FC06A8168E23D24259F6B686983&rd=1&h=0Ldj6f7Gp3yjvDXYJ7FvgGHkJhmpDImUFhLvn6coJOs&v=1&r=https%3a%2f%2fwww.theatlantic.com%2fpolitics%2farchive%2f2016%2f11%2ftracking-the-clinton-controversies-from-whitewater-to-benghazi%2f396182%2f&p=DevEx,5708.1
p506
sg13
g504
sg14
VShe also earned money from the Clinton Foundation and was paid directly by Hillary Clinton. In a separate case, ABC News reports that a top Clinton Foundation donor named Rajiv Fernando was placed on State\u2019s International Security Advisory Board. Fernando appeared significantly less qualified than many of his colleagues, and was appointed at the behest of the secretary\u2019s office.
p507
sg16
(dp508
g18
g504
sg19
g506
sg47
V2017-04-03T05:29:00
p509
sg49
g505
sg24
g507
sg50
Vhttps://api.cognitive.microsoft.com/api/v5/#WebPages.43
p510
ssg52
g510
sg53
Nsg54
g507
sbag1
(g2
g3
Ntp511
Rp512
(dp513
g7
VClinton Foundation Failed to Disclose 1,100 Foreign Donations
p514
sg9
Vhttps://www.bloomberg.com/politics/articles/2015-04-29/clinton...
p515
sg11
Vhttps://www.bing.com/cr?IG=AF6BC3D30B3B41FB83A9AE57DC9BC5D4&CID=2A462FC06A8168E23D24259F6B686983&rd=1&h=n9Kgay4H5nEGOxlF7gM10uYGJ4_xHBKv7muQLJUp4P0&v=1&r=https%3a%2f%2fwww.bloomberg.com%2fpolitics%2farticles%2f2015-04-29%2fclinton-foundation-failed-to-disclose-1-100-foreign-donations&p=DevEx,5723.1
p516
sg13
g514
sg14
VThe co-founder of the Clinton Foundation's Canadian affiliate is revealing new details about the charity's donors in an effort to counter allegations in the New York Times and the new book \u201cClinton Cash.\u201d
p517
sg16
(dp518
g18
g514
sg19
g516
sg47
V2017-03-29T15:28:00
p519
sg49
g515
sg24
g517
sg50
Vhttps://api.cognitive.microsoft.com/api/v5/#WebPages.44
p520
ssg52
g520
sg53
Nsg54
g517
sbag1
(g2
g3
Ntp521
Rp522
(dp523
g7
VThe Clinton Foundation You\u2019ve Never Heard Of - The Daily Beast
p524
sg9
Vwww.thedailybeast.com/articles/2016/09/14/the-clinton-foundation...
p525
sg11
Vhttp://www.bing.com/cr?IG=AF6BC3D30B3B41FB83A9AE57DC9BC5D4&CID=2A462FC06A8168E23D24259F6B686983&rd=1&h=vk9Uiqmh3PXoKV5U-pj0Pe30FYoSP1ikWxzqKDsM-cA&v=1&r=http%3a%2f%2fwww.thedailybeast.com%2farticles%2f2016%2f09%2f14%2fthe-clinton-foundation-you-ve-never-heard-of.html&p=DevEx,5737.1
p526
sg13
g524
sg14
VThe little-known Clinton Family Foundation has spent more than $20 million on smaller goals: supporting their local firehouse, the Arkansas Ballet, and more.
p527
sg16
(dp528
g18
g524
sg19
g526
sg47
V2017-03-30T07:08:00
p529
sg49
g525
sg24
g527
sg50
Vhttps://api.cognitive.microsoft.com/api/v5/#WebPages.45
p530
ssg52
g530
sg53
Nsg54
g527
sbag1
(g2
g3
Ntp531
Rp532
(dp533
g7
VFinally: the Eruption of the Clinton Foundation Scandal
p534
sg9
Vwww.counterpunch.org/...the-eruption-of-the-clinton-foundation-scandal
p535
sg11
Vhttp://www.bing.com/cr?IG=AF6BC3D30B3B41FB83A9AE57DC9BC5D4&CID=2A462FC06A8168E23D24259F6B686983&rd=1&h=NRvgpTLJgwTKvfqlfnrHAgpF78zeoXVrvNqAGP556us&v=1&r=http%3a%2f%2fwww.counterpunch.org%2f2016%2f08%2f12%2ffinally-the-eruption-of-the-clinton-foundation-scandal%2f&p=DevEx,5750.1
p536
sg13
g534
sg14
V\u201cIt\u2019s getting really hard to know where any lines were drawn.\u201d-CNN. I confess I\u2019d been looking forward to this. My son, following the Judicial Watch website, has been saying for months that the big email scandal will involve the State Department-Clinton Foundation ties and Hillary\u2019s use of her office to acquire contributions from Saudi and other donors.
p537
sg16
(dp538
g18
g534
sg19
g536
sg47
V2017-04-01T19:51:00
p539
sg49
g535
sg24
g537
sg50
Vhttps://api.cognitive.microsoft.com/api/v5/#WebPages.46
p540
ssg52
g540
sg53
Nsg54
g537
sba.