(lp0
ccopy_reg
_reconstructor
p1
(cpy_ms_cognitive.py_ms_cognitive_search.py_ms_cognitive_web_search
WebResult
p2
c__builtin__
object
p3
Ntp4
Rp5
(dp6
S'name'
p7
VKing George Day - Ascot Racecourse
p8
sS'display_url'
p9
Vhttps://www.ascot.co.uk/bfwendmeet/king-george-day
p10
sS'url'
p11
Vhttps://www.bing.com/cr?IG=1DB1DF7463ED4624964BDC8EA54295C6&CID=1A2DF59A8C68601218F8FFC58D816175&rd=1&h=rtKVfyc3fSzBEllqQRiqmi2qWrnlH5iEQWRw_yb_cGw&v=1&r=https%3a%2f%2fwww.ascot.co.uk%2fbfwendmeet%2fking-george-day&p=DevEx,5103.1
p12
sS'title'
p13
g8
sS'snippet'
p14
VKing George Day. An important day in the Flat racing calendar, King George Day features the Group 1 King George VI & Queen Elizabeth Stakes (sponsored by Betfair).
p15
sS'json'
p16
(dp17
Vname
p18
g8
sVurl
p19
g12
sVdateLastCrawled
p20
V2017-04-02T04:34:00
p21
sVdisplayUrl
p22
g10
sVsnippet
p23
g15
sVid
p24
Vhttps://api.cognitive.microsoft.com/api/v5/#WebPages.0
p25
ssS'id'
p26
g25
sS'deep_links'
p27
NsS'description'
p28
g15
sbag1
(g2
g3
Ntp29
Rp30
(dp31
g7
VKing George VI Weekend - dev.ascot.co.uk
p32
sg9
Vhttps://dev.ascot.co.uk/king-george/Friday
p33
sg11
Vhttps://www.bing.com/cr?IG=1DB1DF7463ED4624964BDC8EA54295C6&CID=1A2DF59A8C68601218F8FFC58D816175&rd=1&h=5jW2WEALIm4O6GWYFZ31iSLzoZ4cvdNtkUkZHiL3YUI&v=1&r=https%3a%2f%2fdev.ascot.co.uk%2fking-george%2fFriday&p=DevEx,5127.1
p34
sg13
g32
sg14
VAscot's King George VI Race Weekend always attracts some of the world's best horses & jockeys. Find out about the dress code, race schedule, enclosures & more.
p35
sg16
(dp36
g18
g32
sg19
g34
sg20
V2017-04-04T23:29:00
p37
sg22
g33
sg23
g35
sg24
Vhttps://api.cognitive.microsoft.com/api/v5/#WebPages.1
p38
ssg26
g38
sg27
Nsg28
g35
sbag1
(g2
g3
Ntp39
Rp40
(dp41
g7
VAscot \u2013 King George Weekend \u2013 The Ascot Pavilion | Imperial Corporate ...
p42
sg9
Vimperial.events/event/betfair-weekend-king-george-day-the-pavilion
p43
sg11
Vhttp://www.bing.com/cr?IG=1DB1DF7463ED4624964BDC8EA54295C6&CID=1A2DF59A8C68601218F8FFC58D816175&rd=1&h=aYdcxROuifJnGq8x5eLqpeAn6Plga-J7BagJ654hbuU&v=1&r=http%3a%2f%2fimperial.events%2fevent%2fbetfair-weekend-king-george-day-the-pavilion%2f&p=DevEx,5141.1
p44
sg13
g42
sg14
VExperience the thrill of King George's Weekend from the Pavillion Restaurant. This unique horse racing hospitality package is for any horse racing fan!
p45
sg16
(dp46
g18
g42
sg19
g44
sg20
V2017-04-02T22:38:00
p47
sg22
g43
sg23
g45
sg24
Vhttps://api.cognitive.microsoft.com/api/v5/#WebPages.2
p48
ssg26
g48
sg27
Nsg28
g45
sbag1
(g2
g3
Ntp49
Rp50
(dp51
g7
VRacing at Ascot 2017: King George Weekend - windsor.gov.uk
p52
sg9
Vwww.windsor.gov.uk/whats-on/...ascot-2017-king-george-weekend-p986331
p53
sg11
Vhttp://www.bing.com/cr?IG=1DB1DF7463ED4624964BDC8EA54295C6&CID=1A2DF59A8C68601218F8FFC58D816175&rd=1&h=Hg75zxuuk1WvWwFkTZG-bGBM5pEInl19AP8OZTdOtHY&v=1&r=http%3a%2f%2fwww.windsor.gov.uk%2fwhats-on%2fracing-at-ascot-2017-king-george-weekend-p986331&p=DevEx,5153.1
p54
sg13
g52
sg14
VKing George Weekend - Friday Enjoy a competitive six-race card, including the John Guest Brown Jack Stakes. This race commemorates the racing legend, who won at no less than seven different Royal Meetings.
p55
sg16
(dp56
g18
g52
sg19
g54
sg20
V2017-03-26T04:03:00
p57
sg22
g53
sg23
g55
sg24
Vhttps://api.cognitive.microsoft.com/api/v5/#WebPages.3
p58
ssg26
g58
sg27
Nsg28
g55
sbag1
(g2
g3
Ntp59
Rp60
(dp61
g7
VAscot King George VI Weekend 10 pictures - Getty Images
p62
sg9
Vwww.gettyimages.com/event/ascot-king-george-vi-weekend-656569479
p63
sg11
Vhttp://www.bing.com/cr?IG=1DB1DF7463ED4624964BDC8EA54295C6&CID=1A2DF59A8C68601218F8FFC58D816175&rd=1&h=Mmzd3SjzEL3qa2BQuwgl7SZiEE1b6giV9doPv2DxD_c&v=1&r=http%3a%2f%2fwww.gettyimages.com%2fevent%2fascot-king-george-vi-weekend-656569479&p=DevEx,5166.1
p64
sg13
g62
sg14
VBrowse Ascot King George VI Weekend latest photos. View images and find out more about Ascot King George VI Weekend at Getty Images.
p65
sg16
(dp66
g18
g62
sg19
g64
sg20
V2017-03-11T21:12:00
p67
sg22
g63
sg23
g65
sg24
Vhttps://api.cognitive.microsoft.com/api/v5/#WebPages.4
p68
ssg26
g68
sg27
Nsg28
g65
sbag1
(g2
g3
Ntp69
Rp70
(dp71
g7
VAscot \u2013 King George Weekend \u2013 Private Viewing Box | Imperial Corporate ...
p72
sg9
Vimperial.events/event/ascot...king-george-weekend-private-viewing
p73
sg11
Vhttp://www.bing.com/cr?IG=1DB1DF7463ED4624964BDC8EA54295C6&CID=1A2DF59A8C68601218F8FFC58D816175&rd=1&h=CeR_1k1RTfmiZvcrWjjwOE49sqj8Hss-dA-l8kEDJGs&v=1&r=http%3a%2f%2fimperial.events%2fevent%2fascot-racecourse-king-george-weekend-private-viewing%2f&p=DevEx,5180.1
p74
sg13
g72
sg14
VExperience the thrill of King George's Weekend from your own private viewing box. This unique horse racing hospitality package is for any horse racing fan!
p75
sg16
(dp76
g18
g72
sg19
g74
sg20
V2017-03-16T19:26:00
p77
sg22
g73
sg23
g75
sg24
Vhttps://api.cognitive.microsoft.com/api/v5/#WebPages.5
p78
ssg26
g78
sg27
Nsg28
g75
sbag1
(g2
g3
Ntp79
Rp80
(dp81
g7
VAscot Racecourse - King George Weekend - Venues & Events
p82
sg9
Vwww.prestigevenuesandevents.sodexo.com/.../ascot-racecourse
p83
sg11
Vhttp://www.bing.com/cr?IG=1DB1DF7463ED4624964BDC8EA54295C6&CID=1A2DF59A8C68601218F8FFC58D816175&rd=1&h=5yV8gBfSOwYN6OPA35McGVTmGQCwDkzpyPdACG_apcg&v=1&r=http%3a%2f%2fwww.prestigevenuesandevents.sodexo.com%2fcorporate-hospitality%2f1%2f21%2fascot-racecourse-king-george-weekend%2fascot-racecourse%2f&p=DevEx,5192.1
p84
sg13
g82
sg14
VFeaturing the Group 1 King George VI and Queen Elizabeth Stakes, the King George Weekend is a vital fixture in the flat racing calendar. For those in search of top quality racing and a quintessential British day out at the peak of summertime, The King George Weekend is the ideal raceday. Tel: 0870 727 8765
p85
sg16
(dp86
g18
g82
sg19
g84
sg20
V2017-03-31T11:09:00
p87
sg22
g83
sg23
g85
sg24
Vhttps://api.cognitive.microsoft.com/api/v5/#WebPages.6
p88
ssg26
g88
sg27
Nsg28
g85
sbag1
(g2
g3
Ntp89
Rp90
(dp91
g7
VRacing at Ascot 2017: King George Weekend - Sporting Event in Ascot ...
p92
sg9
Vwww.visitsoutheastengland.com/...at-ascot-2017-king-george-weekend...
p93
sg11
Vhttp://www.bing.com/cr?IG=1DB1DF7463ED4624964BDC8EA54295C6&CID=1A2DF59A8C68601218F8FFC58D816175&rd=1&h=8L7ZMY_H4YgnNuUOyCYksy89-AQYWZANVrzb58tKMos&v=1&r=http%3a%2f%2fwww.visitsoutheastengland.com%2fevents%2fracing-at-ascot-2017-king-george-weekend-p986331&p=DevEx,5203.1
p94
sg13
g92
sg14
VA race meeting for all-comers, including the Group 1 race King George VI & Queen Elizabeth Stakes on the Saturday, and a competitive 6 race card on the Friday.
p95
sg16
(dp96
g18
g92
sg19
g94
sg20
V2017-03-22T13:54:00
p97
sg22
g93
sg23
g95
sg24
Vhttps://api.cognitive.microsoft.com/api/v5/#WebPages.7
p98
ssg26
g98
sg27
Nsg28
g95
sbag1
(g2
g3
Ntp99
Rp100
(dp101
g7
VKing George VI Weekend - Racingbreaks
p102
sg9
Vhttps://www.racingbreaks.com/.../events/king-george-vi-weekend
p103
sg11
Vhttps://www.bing.com/cr?IG=1DB1DF7463ED4624964BDC8EA54295C6&CID=1A2DF59A8C68601218F8FFC58D816175&rd=1&h=4argSFtgWKUu3DW0LSH5uIyHH60z2rlQ94gxlIlHhYw&v=1&r=https%3a%2f%2fwww.racingbreaks.com%2fracecourses%2fascot-racecourse%2fevents%2fking-george-vi-weekend&p=DevEx,5215.1
p104
sg13
g102
sg14
VOverview. The King George VI Weekend celebrates the best of the British summer, and is one of Ascot\u2019s most prestigious race meetings outside of the Royal Meeting.
p105
sg16
(dp106
g18
g102
sg19
g104
sg20
V2017-03-23T05:01:00
p107
sg22
g103
sg23
g105
sg24
Vhttps://api.cognitive.microsoft.com/api/v5/#WebPages.8
p108
ssg26
g108
sg27
Nsg28
g105
sbag1
(g2
g3
Ntp109
Rp110
(dp111
g7
VKing George Weekend - Corporate Hospitality
p112
sg9
Vwww.corporatehospitality.com/.../ascot.../king-george-weekend-saturday
p113
sg11
Vhttp://www.bing.com/cr?IG=1DB1DF7463ED4624964BDC8EA54295C6&CID=1A2DF59A8C68601218F8FFC58D816175&rd=1&h=AEzaytGGTY69k0_GTZ5h0bwFNJ09MN2B38VXTRP05L4&v=1&r=http%3a%2f%2fwww.corporatehospitality.com%2fhorse-racing-hospitality%2fascot-racecourse%2fking-george-weekend-saturday&p=DevEx,5228.1
p114
sg13
g112
sg14
VThe Saturday of the King George Weekend at Ascot Racecourse never fails to impress clients and colleagues. The feature race is The King George VI & Queen Elizabeth Stakes. Enquire today with Hospitality Finder for your corporate hospitality packages.
p115
sg16
(dp116
g18
g112
sg19
g114
sg20
V2017-03-16T07:33:00
p117
sg22
g113
sg23
g115
sg24
Vhttps://api.cognitive.microsoft.com/api/v5/#WebPages.9
p118
ssg26
g118
sg27
Nsg28
g115
sbag1
(g2
g3
Ntp119
Rp120
(dp121
g7
VKing George Weekend at Ascot 2016 - Eventful Stays
p122
sg9
Veventfulstays.com/event/king-george-weekend-at-ascot-2016-
p123
sg11
Vhttp://www.bing.com/cr?IG=1DB1DF7463ED4624964BDC8EA54295C6&CID=1A2DF59A8C68601218F8FFC58D816175&rd=1&h=5xEHzyGiJMdJAAg8AJUZR5vXoJ6MpObVqqs8MDp0jI0&v=1&r=http%3a%2f%2feventfulstays.com%2fevent%2fking-george-weekend-at-ascot-2016-&p=DevEx,5241.1
p124
sg13
g122
sg14
VAbout the King George Weekend at Ascot. Each and every year the King George Weekend draws enormous crowds to the Ascot Racecourse in Berkshire for a weekend of the finest racing.
p125
sg16
(dp126
g18
g122
sg19
g124
sg20
V2017-03-29T01:13:00
p127
sg22
g123
sg23
g125
sg24
Vhttps://api.cognitive.microsoft.com/api/v5/#WebPages.10
p128
ssg26
g128
sg27
Nsg28
g125
sbag1
(g2
g3
Ntp129
Rp130
(dp131
g7
VAscot King George VI Weekend Photos and Images | Getty Images
p132
sg9
Vwww.gettyimages.co.uk/event/ascot-king-george-vi-weekend-656569479
p133
sg11
Vhttp://www.bing.com/cr?IG=1DB1DF7463ED4624964BDC8EA54295C6&CID=1A2DF59A8C68601218F8FFC58D816175&rd=1&h=o7M7Xr5BuWaz6e3p_7xgxGEYBsR760l8pzaslbEIxmU&v=1&r=http%3a%2f%2fwww.gettyimages.co.uk%2fevent%2fascot-king-george-vi-weekend-656569479&p=DevEx,5254.1
p134
sg13
g132
sg14
VBrowse Ascot King George VI Weekend latest photos. View images and find out more about Ascot King George VI Weekend at Getty Images.
p135
sg16
(dp136
g18
g132
sg19
g134
sg20
V2017-04-01T05:57:00
p137
sg22
g133
sg23
g135
sg24
Vhttps://api.cognitive.microsoft.com/api/v5/#WebPages.11
p138
ssg26
g138
sg27
Nsg28
g135
sbag1
(g2
g3
Ntp139
Rp140
(dp141
g7
VAscot King George VI Weekend Day One 2017 | Odds & Results | HRA.
p142
sg9
Vhorseracingapps.co.uk/ascot-king-george-vi-weekend
p143
sg11
Vhttp://www.bing.com/cr?IG=1DB1DF7463ED4624964BDC8EA54295C6&CID=1A2DF59A8C68601218F8FFC58D816175&rd=1&h=k242czPEoIlLHGJzYV_m6y1zYub_L-hx_y54aJfMs54&v=1&r=http%3a%2f%2fhorseracingapps.co.uk%2fascot-king-george-vi-weekend-day-one%2f&p=DevEx,5267.1
p144
sg13
g142
sg14
VAscot racecourse King George VI weekend day one, get the latest odds, racecards & results right here. Racing tips and free bets to take advantage of too.
p145
sg16
(dp146
g18
g142
sg19
g144
sg20
V2017-03-19T08:16:00
p147
sg22
g143
sg23
g145
sg24
Vhttps://api.cognitive.microsoft.com/api/v5/#WebPages.12
p148
ssg26
g148
sg27
Nsg28
g145
sbag1
(g2
g3
Ntp149
Rp150
(dp151
g7
VKing George VI Weekend | Ascot
p152
sg9
Vhttps://dev.ascot.co.uk/king-george-weekend-3
p153
sg11
Vhttps://www.bing.com/cr?IG=1DB1DF7463ED4624964BDC8EA54295C6&CID=1A2DF59A8C68601218F8FFC58D816175&rd=1&h=6xpgYoDdPn8-y_Yd4Nca5u93nZr9PtLdA2GiHJOxdOs&v=1&r=https%3a%2f%2fdev.ascot.co.uk%2fking-george-weekend-3&p=DevEx,5278.1
p154
sg13
g152
sg14
VDiscover Ascot Raceday Wednesday 3rd - Wednesday 3rd May 2017 May Racing Weekend Friday 12th - Saturday 13th May 2017 Royal Ascot Tuesday 20th - Saturday 24th June 2017
p155
sg16
(dp156
g18
g152
sg19
g154
sg20
V2017-03-30T12:05:00
p157
sg22
g153
sg23
g155
sg24
Vhttps://api.cognitive.microsoft.com/api/v5/#WebPages.13
p158
ssg26
g158
sg27
Nsg28
g155
sbag1
(g2
g3
Ntp159
Rp160
(dp161
g7
VAscot: King George, Betfair Weekend | Ascot Racecourse | Flickr
p162
sg9
Vhttps://www.flickr.com/photos/ascotracecourse2011/5394955497
p163
sg11
Vhttps://www.bing.com/cr?IG=1DB1DF7463ED4624964BDC8EA54295C6&CID=1A2DF59A8C68601218F8FFC58D816175&rd=1&h=SkNVIhFn5x-HM2FhJs1whXKJO7t31XBF2IQLQAzRRtI&v=1&r=https%3a%2f%2fwww.flickr.com%2fphotos%2fascotracecourse2011%2f5394955497%2f&p=DevEx,5293.1
p164
sg13
g162
sg14
VAscot: King George, Betfair Weekend Done. 153 views. 0 faves
p165
sg16
(dp166
g18
g162
sg19
g164
sg20
V2017-04-08T17:45:00
p167
sg22
g163
sg23
g165
sg24
Vhttps://api.cognitive.microsoft.com/api/v5/#WebPages.14
p168
ssg26
g168
sg27
Nsg28
g165
sbag1
(g2
g3
Ntp169
Rp170
(dp171
g7
VKing George Weekend - Corporate Hospitality
p172
sg9
Vddd.corporatehospitality.com/.../ascot.../king-george-weekend-friday
p173
sg11
Vhttp://www.bing.com/cr?IG=1DB1DF7463ED4624964BDC8EA54295C6&CID=1A2DF59A8C68601218F8FFC58D816175&rd=1&h=HdQ3REK090UBcYl3sg2LU3kglN98xr0xyA0NtuMIyQw&v=1&r=http%3a%2f%2fddd.corporatehospitality.com%2fhorse-racing-hospitality%2fascot-racecourse%2fking-george-weekend-friday&p=DevEx,5305.1
p174
sg13
g172
sg14
VKing George Weekend at Ascot Racecourse never fails to impress clients and colleagues with a competitive six-race card featuring the John Guest Brown Jack Stakes. Enquire today with Hospitality Finder for your corporate hospitality packages.
p175
sg16
(dp176
g18
g172
sg19
g174
sg20
V2017-02-01T04:32:00
p177
sg22
g173
sg23
g175
sg24
Vhttps://api.cognitive.microsoft.com/api/v5/#WebPages.15
p178
ssg26
g178
sg27
Nsg28
g175
sbag1
(g2
g3
Ntp179
Rp180
(dp181
g7
VWhat to wear for Ascot's King George weekend - Newspaper
p182
sg9
Vwww.independent.co.uk/life-style/fashion/features/what-to-wear-for...
p183
sg11
Vhttp://www.bing.com/cr?IG=1DB1DF7463ED4624964BDC8EA54295C6&CID=1A2DF59A8C68601218F8FFC58D816175&rd=1&h=cg_hkgonAy0dT96G5I2LsaEu9XBTkNyREtje0e9RP8o&v=1&r=http%3a%2f%2fwww.independent.co.uk%2flife-style%2ffashion%2ffeatures%2fwhat-to-wear-for-ascots-king-george-weekend-10385456.html&p=DevEx,5322.1
p184
sg13
g182
sg14
VRoyal Ascot might be over for another year, but the track is back in action as it welcomes one of the biggest, and most prestigious, races of the year later this month. The King George Weekend comes next on the list after the annual Royal Meeting that sees a parade of high fashion and glam hats
p185
sg16
(dp186
g18
g182
sg19
g184
sg20
V2017-03-30T03:11:00
p187
sg22
g183
sg23
g185
sg24
Vhttps://api.cognitive.microsoft.com/api/v5/#WebPages.16
p188
ssg26
g188
sg27
Nsg28
g185
sbag1
(g2
g3
Ntp189
Rp190
(dp191
g7
VWeekend Preview: Betfair King George at Ascot one to savour
p192
sg9
Vhttps://betting.betfair.com/horse-racing/timeform-features/weekend...
p193
sg11
Vhttps://www.bing.com/cr?IG=1DB1DF7463ED4624964BDC8EA54295C6&CID=1A2DF59A8C68601218F8FFC58D816175&rd=1&h=7o-nFSipat47ddGO2DplmlgsFHLr_3v4Div6nATmHC4&v=1&r=https%3a%2f%2fbetting.betfair.com%2fhorse-racing%2ftimeform-features%2fweekend-preview-review%2fweekend-preview-betfair-king-george-at-ascot-one-to-sav-220711.html&p=DevEx,5337.1
p194
sg13
g192
sg14
VTimeform look over the weekend's racing, the highlight of which is the Betfair-sponsored King George VI and Queen Elizabeth Stakes at Ascot... The best racing of the weekend undoubtedly comes on Saturday as Ascot stages the King George VI and Queen Elizabeth Stakes, traditionally the British middle-distance championship race between the classic generation and older horses.
p195
sg16
(dp196
g18
g192
sg19
g194
sg20
V2016-11-12T08:19:00
p197
sg22
g193
sg23
g195
sg24
Vhttps://api.cognitive.microsoft.com/api/v5/#WebPages.17
p198
ssg26
g198
sg27
Nsg28
g195
sbag1
(g2
g3
Ntp199
Rp200
(dp201
g7
VAscot Racecourse 2017 | Horse Racing Festivals & Events | HRA
p202
sg9
Vhorseracingapps.co.uk/ascot
p203
sg11
Vhttp://www.bing.com/cr?IG=1DB1DF7463ED4624964BDC8EA54295C6&CID=1A2DF59A8C68601218F8FFC58D816175&rd=1&h=UHpI7V1Irt36BhCDG7xLx6uMg8oJWsHCjJXZTwBI26Q&v=1&r=http%3a%2f%2fhorseracingapps.co.uk%2fascot%2f&p=DevEx,5350.1
p204
sg13
g202
sg14
VFriday 28th July: On the opening day of the King George VI weekend at Ascot racecourse spectators will get the chance to enjoy a competitive horse racing card with six races on show, including the John Guest Brown Jack Stakes.
p205
sg16
(dp206
g18
g202
sg19
g204
sg20
V2017-03-27T20:12:00
p207
sg22
g203
sg23
g205
sg24
Vhttps://api.cognitive.microsoft.com/api/v5/#WebPages.18
p208
ssg26
g208
sg27
Nsg28
g205
sbag1
(g2
g3
Ntp209
Rp210
(dp211
g7
VKing George Weekend \u2013 Ascot Racecourse | Corinthian
p212
sg9
Vwww.corinthiansports.co.uk/.../king-george-weekend-ascot-racecourse-2
p213
sg11
Vhttp://www.bing.com/cr?IG=1DB1DF7463ED4624964BDC8EA54295C6&CID=1A2DF59A8C68601218F8FFC58D816175&rd=1&h=EfgVY9ipOkeo6f-s9OfqTZLjCyr1RpCFedwVviP5sUY&v=1&r=http%3a%2f%2fwww.corinthiansports.co.uk%2fevents%2fking-george-weekend-ascot-racecourse-2%2f&p=DevEx,5363.1
p214
sg13
g212
sg14
VDate & Time 22/07/2016 - 23/07/2016 - All Day. Venue Ascot Racecourse. Category. Horse Racing; On the Friday, enjoy a competitive six-race card, including the John Guest Brown Jack Stakes.
p215
sg16
(dp216
g18
g212
sg19
g214
sg20
V2017-03-25T21:18:00
p217
sg22
g213
sg23
g215
sg24
Vhttps://api.cognitive.microsoft.com/api/v5/#WebPages.19
p218
ssg26
g218
sg27
Nsg28
g215
sbag1
(g2
g3
Ntp219
Rp220
(dp221
g7
VKing George Weekend \u2013 Ascot Racecourse | Corinthian
p222
sg9
Vwww.corinthiansports.co.uk/events/king-george-weekend-ascot-racecourse
p223
sg11
Vhttp://www.bing.com/cr?IG=1DB1DF7463ED4624964BDC8EA54295C6&CID=1A2DF59A8C68601218F8FFC58D816175&rd=1&h=77PPbn7_UcTp5pXQgeBhhWZzWlBK9x2pIUFrv62b_mM&v=1&r=http%3a%2f%2fwww.corinthiansports.co.uk%2fevents%2fking-george-weekend-ascot-racecourse%2f&p=DevEx,5376.1
p224
sg13
g222
sg14
VDate & Time 24/07/2015 - 25/07/2015 - All Day. Venue Ascot Racecourse. Category. Horse Racing; On the Friday, enjoy a competitive six-race card, including the John Guest Brown Jack Stakes.
p225
sg16
(dp226
g18
g222
sg19
g224
sg20
V2017-04-02T01:38:00
p227
sg22
g223
sg23
g225
sg24
Vhttps://api.cognitive.microsoft.com/api/v5/#WebPages.20
p228
ssg26
g228
sg27
Nsg28
g225
sbag1
(g2
g3
Ntp229
Rp230
(dp231
g7
VKing George Weekend Ascot Racecourse - allinlondon.co.uk
p232
sg9
Vhttps://www.allinlondon.co.uk/whats-on.php?event=135880
p233
sg11
Vhttps://www.bing.com/cr?IG=1DB1DF7463ED4624964BDC8EA54295C6&CID=1A2DF59A8C68601218F8FFC58D816175&rd=1&h=FKJBY6WNGZGqZnvB2P4GJ4YokCv47UqaSdR6vZ6d4jQ&v=1&r=https%3a%2f%2fwww.allinlondon.co.uk%2fwhats-on.php%3fevent%3d135880&p=DevEx,5391.1
p234
sg13
g232
sg14
VKing George Weekend Ascot Racecourse, Ascot Racecourse, Ascot , Berkshire - Event dates and times, admission prices, nearest station, map and user reviews
p235
sg16
(dp236
g18
g232
sg19
g234
sg20
V2017-02-24T13:05:00
p237
sg22
g233
sg23
g235
sg24
Vhttps://api.cognitive.microsoft.com/api/v5/#WebPages.21
p238
ssg26
g238
sg27
Nsg28
g235
sbag1
(g2
g3
Ntp239
Rp240
(dp241
g7
VLondon, Glyndebourne Opera Festival and King George VI Weekend, Ascot
p242
sg9
Vhttps://www.pinterest.com/stevensanders94/london-glyndebourne...
p243
sg11
Vhttps://www.bing.com/cr?IG=1DB1DF7463ED4624964BDC8EA54295C6&CID=1A2DF59A8C68601218F8FFC58D816175&rd=1&h=keGSGr2yPcGSBvmZ63gvBg0_d81fNvHKHWVcrb1-FC0&v=1&r=https%3a%2f%2fwww.pinterest.com%2fstevensanders94%2flondon-glyndebourne-opera-festival-and-king-george%2f&p=DevEx,5403.1
p244
sg13
g242
sg14
VCommissioned by De Beers, Shaun Leane has produced this exquisite pair of diamond earrings that was presented by Queen Elizabeth to the Winning Trainer in the King George VI and Queen Elizabeth Diamond Stakes in July 2003 at Ascot.
p245
sg16
(dp246
g18
g242
sg19
g244
sg20
V2017-03-24T21:45:00
p247
sg22
g243
sg23
g245
sg24
Vhttps://api.cognitive.microsoft.com/api/v5/#WebPages.22
p248
ssg26
g248
sg27
Nsg28
g245
sbag1
(g2
g3
Ntp249
Rp250
(dp251
g7
VAscot King George VI Weekend: foto e immagini | Getty Images
p252
sg9
Vwww.gettyimages.it/evento/ascot-king-george-vi-weekend-656569479
p253
sg11
Vhttp://www.bing.com/cr?IG=1DB1DF7463ED4624964BDC8EA54295C6&CID=1A2DF59A8C68601218F8FFC58D816175&rd=1&h=mEJEK4aQr-k4hrvmRzJftGkdDlNbZjNuA04hKXMRBMM&v=1&r=http%3a%2f%2fwww.gettyimages.it%2fevento%2fascot-king-george-vi-weekend-656569479&p=DevEx,5415.1
p254
sg13
g252
sg14
VAscot King George VI Weekend: sfoglia le nuove foto. Guarda le immagini e ottieni maggiori informazioni su Ascot King George VI Weekend sul sito Getty Images.
p255
sg16
(dp256
g18
g252
sg19
g254
sg20
V2017-04-01T09:42:00
p257
sg22
g253
sg23
g255
sg24
Vhttps://api.cognitive.microsoft.com/api/v5/#WebPages.23
p258
ssg26
g258
sg27
Nsg28
g255
sbag1
(g2
g3
Ntp259
Rp260
(dp261
g7
VAscot Ticket & Restaurant Offer | Racing UK
p262
sg9
Vwww.racinguk.com/ascotkinggeorgeoffers
p263
sg11
Vhttp://www.bing.com/cr?IG=1DB1DF7463ED4624964BDC8EA54295C6&CID=1A2DF59A8C68601218F8FFC58D816175&rd=1&h=JC1BfFGugabHKpVnZKQ9OfN0zodL_loVn3rgvqEet2w&v=1&r=http%3a%2f%2fwww.racinguk.com%2fascotkinggeorgeoffers&p=DevEx,5428.1
p264
sg13
g262
sg14
VAscot Ticket & Restaurant Offer Ascot King George Weekend . We have teamed up with Ascot to offer Racing UK Subscribers a 2 for 1 Grandstand ticket offer for Friday July 25.
p265
sg16
(dp266
g18
g262
sg19
g264
sg20
V2017-03-29T04:30:00
p267
sg22
g263
sg23
g265
sg24
Vhttps://api.cognitive.microsoft.com/api/v5/#WebPages.24
p268
ssg26
g268
sg27
Nsg28
g265
sbag1
(g2
g3
Ntp269
Rp270
(dp271
g7
VKing George Weekend at Ascot 2016 Self-Catering Accommodation ...
p272
sg9
Veventfulstays.com/event/king-george-weekend-at-ascot-2016-/self...
p273
sg11
Vhttp://www.bing.com/cr?IG=1DB1DF7463ED4624964BDC8EA54295C6&CID=1A2DF59A8C68601218F8FFC58D816175&rd=1&h=Q4ma-gAcSm1XqOcYpI3S3VBCdoepj9ZeS-qYimDAY-U&v=1&r=http%3a%2f%2feventfulstays.com%2fevent%2fking-george-weekend-at-ascot-2016-%2fself-catering-accommodation&p=DevEx,5441.1
p274
sg13
g272
sg14
VSelf-catering accommodation for King George Weekend at Ascot 2016 Short-stay apartments, houses, mansions and spare bedrooms for King George Weekend at Ascot 2016
p275
sg16
(dp276
g18
g272
sg19
g274
sg20
V2017-03-09T14:29:00
p277
sg22
g273
sg23
g275
sg24
Vhttps://api.cognitive.microsoft.com/api/v5/#WebPages.25
p278
ssg26
g278
sg27
Nsg28
g275
sbag1
(g2
g3
Ntp279
Rp280
(dp281
g7
VAscot King George Weekend Live Streaming - WatchRaces.co.uk
p282
sg9
Vwww.watchraces.co.uk/watch/ascot-king-george-weekend.html
p283
sg11
Vhttp://www.bing.com/cr?IG=1DB1DF7463ED4624964BDC8EA54295C6&CID=1A2DF59A8C68601218F8FFC58D816175&rd=1&h=wQFjijxP5RXH4GXNiLe_JMKmWzlOsXCbaiXQcumTwKE&v=1&r=http%3a%2f%2fwww.watchraces.co.uk%2fwatch%2fascot-king-george-weekend.html&p=DevEx,5454.1
p284
sg13
g282
sg14
VWatch Ascot King George Weekend races live online in June 2015 with the latest horse racing video and commentary.
p285
sg16
(dp286
g18
g282
sg19
g284
sg20
V2017-03-24T12:36:00
p287
sg22
g283
sg23
g285
sg24
Vhttps://api.cognitive.microsoft.com/api/v5/#WebPages.26
p288
ssg26
g288
sg27
Nsg28
g285
sbag1
(g2
g3
Ntp289
Rp290
(dp291
g7
VAscot's Betfair Weekend: King George VI & Queen Elizabeth Stakes ...
p292
sg9
Vhttps://betting.betfair.com/horse-racing/events/post-220-110710.html
p293
sg11
Vhttps://www.bing.com/cr?IG=1DB1DF7463ED4624964BDC8EA54295C6&CID=1A2DF59A8C68601218F8FFC58D816175&rd=1&h=wTM5Rro4MDqEt6hj1mUsnztZo0Xw_3Bh0G91z2mLoRA&v=1&r=https%3a%2f%2fbetting.betfair.com%2fhorse-racing%2fevents%2fpost-220-110710.html&p=DevEx,5469.1
p294
sg13
g292
sg14
VThere's no doubt what the biggest race of the Betfair Weekend is and few would question the credentials of Michael Stoute's market leader. Does Alex Steedman expect a Derby/King George double for Workforce? The King George VI & Queen Elizabeth Stakes may have lost some of its lustre as an attraction
p295
sg16
(dp296
g18
g292
sg19
g294
sg20
V2017-03-31T11:16:00
p297
sg22
g293
sg23
g295
sg24
Vhttps://api.cognitive.microsoft.com/api/v5/#WebPages.27
p298
ssg26
g298
sg27
Nsg28
g295
sbag1
(g2
g3
Ntp299
Rp300
(dp301
g7
VAscot King George Weekend Live Free Stream
p302
sg9
Vstreampig.com/race/ascot-king-george-weekend-live.html
p303
sg11
Vhttp://www.bing.com/cr?IG=1DB1DF7463ED4624964BDC8EA54295C6&CID=1A2DF59A8C68601218F8FFC58D816175&rd=1&h=7CnvnPA304IoGpXltY9M6xCRyS1--0CUhRCpWVGbpTQ&v=1&r=http%3a%2f%2fstreampig.com%2frace%2fascot-king-george-weekend-live.html&p=DevEx,5482.1
p304
sg13
g302
sg14
VWatch Ascot King George Weekend racecourse live online with free video and commentary in 2015.
p305
sg16
(dp306
g18
g302
sg19
g304
sg20
V2017-03-17T08:11:00
p307
sg22
g303
sg23
g305
sg24
Vhttps://api.cognitive.microsoft.com/api/v5/#WebPages.28
p308
ssg26
g308
sg27
Nsg28
g305
sbag1
(g2
g3
Ntp309
Rp310
(dp311
g7
VAscot's King George Weekend Family Fun Day | Ascot - local.mumsnet.com
p312
sg9
Vhttps://local.mumsnet.com/berkshire/other-local-events/240951...
p313
sg11
Vhttps://www.bing.com/cr?IG=1DB1DF7463ED4624964BDC8EA54295C6&CID=1A2DF59A8C68601218F8FFC58D816175&rd=1&h=giVscYtXQWtB9y2t_Coj_NVjTZ_fEaX30npCSQzZkd4&v=1&r=https%3a%2f%2flocal.mumsnet.com%2fberkshire%2fother-local-events%2f240951-ascots-king-george-weekend-family-fun-day&p=DevEx,5494.1
p314
sg13
g312
sg14
VAscot's King George Weekend is amongst the UK's most important Flat meetings and this year's event will be no exception with an attractive line up both on and off the track. Rounding off the King George Weekend is a family fun day with plenty on offer for racegoers of all ages. A star studded line up of Children's TV favourites will be attending including Peppa Pig, ...
p315
sg16
(dp316
g18
g312
sg19
g314
sg20
V2017-02-24T21:06:00
p317
sg22
g313
sg23
g315
sg24
Vhttps://api.cognitive.microsoft.com/api/v5/#WebPages.29
p318
ssg26
g318
sg27
Nsg28
g315
sbag1
(g2
g3
Ntp319
Rp320
(dp321
g7
VAscot King George Weekend Races Live Stream & Commentary | Watch Horse ...
p322
sg9
Vwww.watchhorseracing.tv/live/ascot-king-george-weekend-live.html
p323
sg11
Vhttp://www.bing.com/cr?IG=1DB1DF7463ED4624964BDC8EA54295C6&CID=1A2DF59A8C68601218F8FFC58D816175&rd=1&h=P6vFJiNQ8hKdLePpXhM3SnSlRzxbnRDkcp9Oey8QA2g&v=1&r=http%3a%2f%2fwww.watchhorseracing.tv%2flive%2fascot-king-george-weekend-live.html&p=DevEx,5507.1
p324
sg13
g322
sg14
VWatch the Ascot King George Weekend live stream online with our free horse racing streams and commentary from Ascot King George Weekend racecourse
p325
sg16
(dp326
g18
g322
sg19
g324
sg20
V2017-03-22T17:11:00
p327
sg22
g323
sg23
g325
sg24
Vhttps://api.cognitive.microsoft.com/api/v5/#WebPages.30
p328
ssg26
g328
sg27
Nsg28
g325
sbag1
(g2
g3
Ntp329
Rp330
(dp331
g7
VBRITISH GARDEN PARTY AT KING GEORGE VI WEEKEND | Ascot
p332
sg9
Vhttps://www.christmasatascot.co.uk/british-garden-party-king...
p333
sg11
Vhttps://www.bing.com/cr?IG=1DB1DF7463ED4624964BDC8EA54295C6&CID=1A2DF59A8C68601218F8FFC58D816175&rd=1&h=82nrPxoF78sC9qPF9YOeNArLcVKC_SlKBWp4hhiH-XE&v=1&r=https%3a%2f%2fwww.christmasatascot.co.uk%2fbritish-garden-party-king-george-vi-weekend&p=DevEx,5518.1
p334
sg13
g332
sg14
VAscot's King George VI Weekend is amongst the UK's most important flat horse racing meetings, and this year's event will be no exception. Find out more.
p335
sg16
(dp336
g18
g332
sg19
g334
sg20
V2017-01-04T01:33:00
p337
sg22
g333
sg23
g335
sg24
Vhttps://api.cognitive.microsoft.com/api/v5/#WebPages.31
p338
ssg26
g338
sg27
Nsg28
g335
sbag1
(g2
g3
Ntp339
Rp340
(dp341
g7
VPrebook your Picnic for The King George Weekend | Ascot
p342
sg9
Vhttps://www.ascotwifi.co.uk/prebook-your-picnic-king-george-weekend
p343
sg11
Vhttps://www.bing.com/cr?IG=1DB1DF7463ED4624964BDC8EA54295C6&CID=1A2DF59A8C68601218F8FFC58D816175&rd=1&h=aHKrKwuAIWLfsxTmSkgIkodv9OknALqt2CJxkrnS_Xg&v=1&r=https%3a%2f%2fwww.ascotwifi.co.uk%2fprebook-your-picnic-king-george-weekend&p=DevEx,5529.1
p344
sg13
g342
sg14
VIf you're attending the King George Weekend at Ascot Racecourse, why not start your day with a delicious picnic? Find out more and make an enquiry here.
p345
sg16
(dp346
g18
g342
sg19
g344
sg20
V2017-01-10T12:36:00
p347
sg22
g343
sg23
g345
sg24
Vhttps://api.cognitive.microsoft.com/api/v5/#WebPages.32
p348
ssg26
g348
sg27
Nsg28
g345
sbag1
(g2
g3
Ntp349
Rp350
(dp351
g7
VKing George Day - Ascot Races - Getty Images
p352
sg9
Vwww.gettyimages.co.uk/event/king-george-day-ascot-races-174738244
p353
sg11
Vhttp://www.bing.com/cr?IG=1DB1DF7463ED4624964BDC8EA54295C6&CID=1A2DF59A8C68601218F8FFC58D816175&rd=1&h=i6-UEmu7M40wsFV9w_9KlHTWI9h1dtxVC-jdqceGvmQ&v=1&r=http%3a%2f%2fwww.gettyimages.co.uk%2fevent%2fking-george-day-ascot-races-174738244&p=DevEx,5542.1
p354
sg13
g352
sg14
VBrowse King George Day - Ascot Races latest photos. View images and find out more about King George Day - Ascot Races at Getty Images.
p355
sg16
(dp356
g18
g352
sg19
g354
sg20
V2017-03-29T19:47:00
p357
sg22
g353
sg23
g355
sg24
Vhttps://api.cognitive.microsoft.com/api/v5/#WebPages.33
p358
ssg26
g358
sg27
Nsg28
g355
sbag1
(g2
g3
Ntp359
Rp360
(dp361
g7
VWatch Ascot King George Weekend Races Online, Live Stream - 2015
p362
sg9
Vwww.race-streams.com/watch/ascot-king-george-weekend-live.html
p363
sg11
Vhttp://www.bing.com/cr?IG=1DB1DF7463ED4624964BDC8EA54295C6&CID=1A2DF59A8C68601218F8FFC58D816175&rd=1&h=LzP4HaTPWY0qHJy_Jxh0Shm6ZcGbJwFxbsIca_PtNXM&v=1&r=http%3a%2f%2fwww.race-streams.com%2fwatch%2fascot-king-george-weekend-live.html&p=DevEx,5554.1
p364
sg13
g362
sg14
VThe next race at Ascot King George Weekend racecourse is streamed live for viewers online. You will be able to witness the day's thrills and spills via tablets and smartphones with streaming video and audio available for iphone and ipad.
p365
sg16
(dp366
g18
g362
sg19
g364
sg20
V2017-02-10T20:47:00
p367
sg22
g363
sg23
g365
sg24
Vhttps://api.cognitive.microsoft.com/api/v5/#WebPages.34
p368
ssg26
g368
sg27
Nsg28
g365
sbag1
(g2
g3
Ntp369
Rp370
(dp371
g7
VKing George VI & Queen Elizabeth Stakes 2014 at Ascot
p372
sg9
Vhttps://www.ladyandthetrack.com/upcoming-races/8881/king-george-vi...
p373
sg11
Vhttps://www.bing.com/cr?IG=1DB1DF7463ED4624964BDC8EA54295C6&CID=1A2DF59A8C68601218F8FFC58D816175&rd=1&h=RIsmHCZwY68-VVbBobYzZJ0gyw4nqE6q_E-UFO_2hOA&v=1&r=https%3a%2f%2fwww.ladyandthetrack.com%2fupcoming-races%2f8881%2fking-george-vi-queen-elizabeth-stakes-2014-ascot.html&p=DevEx,5567.1
p374
sg13
g372
sg14
VKing George VI & Queen Elizabeth Stakes 2014 at Ascot: King George Weekend at Ascot is certainly an event to celebrate. It is a weekend full of racing and it is held at one of the most prestigious racecourses featuring one of the most traditional sports. The feature race of the weekend is The King
p375
sg16
(dp376
g18
g372
sg19
g374
sg20
V2017-03-26T16:11:00
p377
sg22
g373
sg23
g375
sg24
Vhttps://api.cognitive.microsoft.com/api/v5/#WebPages.35
p378
ssg26
g378
sg27
Nsg28
g375
sbag1
(g2
g3
Ntp379
Rp380
(dp381
g7
VThe King George VI Weekend at Ascot - London Visitors
p382
sg9
Vhttps://londonvisitors.wordpress.com/2015/07/18/the-king-george-vi...
p383
sg11
Vhttps://www.bing.com/cr?IG=1DB1DF7463ED4624964BDC8EA54295C6&CID=1A2DF59A8C68601218F8FFC58D816175&rd=1&h=xFTLAAOifC-UKN2YpXtQLzTYx4wHhZuo7nLZxeR4AhY&v=1&r=https%3a%2f%2flondonvisitors.wordpress.com%2f2015%2f07%2f18%2fthe-king-george-vi-weekend-at-ascot-24th-and-25th-july-2015%2f&p=DevEx,5582.1
p384
sg13
g382
sg14
VThe King George VI and Queen Elizabeth Stakes is one of richest horse races in Britain, it is a Group 1 flat horse race open to horses aged three years or older run at Ascot over a distance of 1 mile and 4 furlongs.
p385
sg16
(dp386
g18
g382
sg19
g384
sg20
V2017-03-26T17:11:00
p387
sg22
g383
sg23
g385
sg24
Vhttps://api.cognitive.microsoft.com/api/v5/#WebPages.36
p388
ssg26
g388
sg27
Nsg28
g385
sbag1
(g2
g3
Ntp389
Rp390
(dp391
g7
VAscot Racecourse King George VI Weekend
p392
sg9
Vtickets.windsor.gov.uk/.../AscotRacecourseKingG
p393
sg11
Vhttp://www.bing.com/cr?IG=1DB1DF7463ED4624964BDC8EA54295C6&CID=1A2DF59A8C68601218F8FFC58D816175&rd=1&h=TFxvQEBHfkaqSHCRow7as2G17ioJ0sRXud3343e3ZOU&v=1&r=http%3a%2f%2ftickets.windsor.gov.uk%2fSales%2fattractions%2fRacecourses%2fAscot-Racecourse-Meetings%2fAscotRacecourseKingG&p=DevEx,5594.1
p394
sg13
g392
sg14
VThe King George VI & Queen Elizabeth Stakes (sponsored by QIPCO) is the feature race commemorating Her Majesty The Queen\u2019s late parents and is the European mid-season middle distance championship.
p395
sg16
(dp396
g18
g392
sg19
g394
sg20
V2017-02-24T22:48:00
p397
sg22
g393
sg23
g395
sg24
Vhttps://api.cognitive.microsoft.com/api/v5/#WebPages.37
p398
ssg26
g398
sg27
Nsg28
g395
sbag1
(g2
g3
Ntp399
Rp400
(dp401
g7
VAscot King George Special | Professional Tips | Betfan
p402
sg9
Vhttps://members.betfanplus.com/services/win/ascotkinggeorgespecial
p403
sg11
Vhttps://www.bing.com/cr?IG=1DB1DF7463ED4624964BDC8EA54295C6&CID=1A2DF59A8C68601218F8FFC58D816175&rd=1&h=57ab6WuOiRQLCBn7JiO_5LlWMOjlUOyYuQf0CJsBF5Y&v=1&r=https%3a%2f%2fmembers.betfanplus.com%2fservices%2fwin%2fascotkinggeorgespecial%2f&p=DevEx,5606.1
p404
sg13
g402
sg14
VDear Racing Fan, Thank you for accepting the invitation to consider this King George V1 Ascot Special. The King George VI Weekend is one of Ascot\u2019s most prestigious race meetings outside of the Royal Meeting.
p405
sg16
(dp406
g18
g402
sg19
g404
sg20
V2017-02-10T07:14:00
p407
sg22
g403
sg23
g405
sg24
Vhttps://api.cognitive.microsoft.com/api/v5/#WebPages.38
p408
ssg26
g408
sg27
Nsg28
g405
sbag1
(g2
g3
Ntp409
Rp410
(dp411
g7
VFun for all on King George Saturday | Ascot
p412
sg9
Vhttps://www.ascotwifi.co.uk/fun-all-king-george-saturday
p413
sg11
Vhttps://www.bing.com/cr?IG=1DB1DF7463ED4624964BDC8EA54295C6&CID=1A2DF59A8C68601218F8FFC58D816175&rd=1&h=qi-nK9Q7ARyhuFOw93JJRrs_Ue3b9P3f2ZPLleU_6sk&v=1&r=https%3a%2f%2fwww.ascotwifi.co.uk%2ffun-all-king-george-saturday&p=DevEx,5617.1
p414
sg13
g412
sg14
VIt was fun for all of the family at Ascot on King George Saturday.
p415
sg16
(dp416
g18
g412
sg19
g414
sg20
V2016-12-27T00:14:00
p417
sg22
g413
sg23
g415
sg24
Vhttps://api.cognitive.microsoft.com/api/v5/#WebPages.39
p418
ssg26
g418
sg27
Nsg28
g415
sbag1
(g2
g3
Ntp419
Rp420
(dp421
g7
VPrivate Restaurant Hire | Ascot Racecourse - King George Weekend ...
p422
sg9
Vwww.prestigevenuesandevents.sodexo.com/.../ascot-racecourse-south-west
p423
sg11
Vhttp://www.bing.com/cr?IG=1DB1DF7463ED4624964BDC8EA54295C6&CID=1A2DF59A8C68601218F8FFC58D816175&rd=1&h=0nJx9C3F2ZRivzCEUaOgFEcL57IkcrfT2Lnekc0RSo0&v=1&r=http%3a%2f%2fwww.prestigevenuesandevents.sodexo.com%2fcorporate-hospitality%2f1%2f21%2f46%2fprivate-restaurant-hire%2fascot-racecourse-king-george-weekend%2fascot-racecourse-south-west&p=DevEx,5629.1
p424
sg13
g422
sg14
VPrivate Restaurant Hire Ascot Hospitality, Ascot Racecourse, Ascot, Berkshire, SL5 7JX International: +44 (0)844 3463611
p425
sg16
(dp426
g18
g422
sg19
g424
sg20
V2017-02-20T00:11:00
p427
sg22
g423
sg23
g425
sg24
Vhttps://api.cognitive.microsoft.com/api/v5/#WebPages.40
p428
ssg26
g428
sg27
Nsg28
g425
sbag1
(g2
g3
Ntp429
Rp430
(dp431
g7
VKing George VI Saturday - The Furlong Club - tickets.sky.com
p432
sg9
Vtickets.sky.com/.../King-George-Weekend...King_George_Weekend,_Ascot
p433
sg11
Vhttp://www.bing.com/cr?IG=1DB1DF7463ED4624964BDC8EA54295C6&CID=1A2DF59A8C68601218F8FFC58D816175&rd=1&h=SG0z7ILQIkCak8PawMbSGY0fBNbgF1ZZFdPWeT8C0wE&v=1&r=http%3a%2f%2ftickets.sky.com%2fRacing%2fKing-George-Weekend%3fDCMP%3dapi-default-na-King_George_Weekend%2c_Ascot&p=DevEx,5641.1
p434
sg13
g432
sg14
VThe Furlong Club Package - exclusive to Sky Tickets customers! The Furlong Club is the perfect venue for racegoers wishing to enjoy a more luxurious racing experience at the King George VI Weekend, one of the most prestigious meetings in the Ascot racing calendar.
p435
sg16
(dp436
g18
g432
sg19
g434
sg20
V2017-04-03T04:10:00
p437
sg22
g433
sg23
g435
sg24
Vhttps://api.cognitive.microsoft.com/api/v5/#WebPages.41
p438
ssg26
g438
sg27
Nsg28
g435
sbag1
(g2
g3
Ntp439
Rp440
(dp441
g7
VKing George VI fay - Ascot Racecourse - tripadvisor.com
p442
sg9
Vhttps://www.tripadvisor.com/ShowUserReviews-g186416-d519589-r...
p443
sg11
Vhttps://www.bing.com/cr?IG=1DB1DF7463ED4624964BDC8EA54295C6&CID=1A2DF59A8C68601218F8FFC58D816175&rd=1&h=aIJNqpRODRJkgZosNuCu-WKSbZ0st1FWrXMlcWPNizc&v=1&r=https%3a%2f%2fwww.tripadvisor.com%2fShowUserReviews-g186416-d519589-r396843645-Ascot_Racecourse-Ascot_Windsor_and_Maidenhead_Berkshire_England.html&p=DevEx,5658.1
p444
sg13
g442
sg14
VAscot Racecourse: King George VI fay - See 714 traveler reviews, 311 candid photos, and great deals for Ascot, UK, at TripAdvisor.
p445
sg16
(dp446
g18
g442
sg19
g444
sg20
V2017-03-01T11:31:00
p447
sg22
g443
sg23
g445
sg24
Vhttps://api.cognitive.microsoft.com/api/v5/#WebPages.42
p448
ssg26
g448
sg27
Nsg28
g445
sbag1
(g2
g3
Ntp449
Rp450
(dp451
g7
VWin VIP tickets to Ascot's King George Weekend - ShortList
p452
sg9
Vwww.shortlist.com/win/win-vip-tickets-to-the-king-george-weekend
p453
sg11
Vhttp://www.bing.com/cr?IG=1DB1DF7463ED4624964BDC8EA54295C6&CID=1A2DF59A8C68601218F8FFC58D816175&rd=1&h=IZtms1PyGwY6S1_C3Z6aFe7nDa-kWRgX-x7e9n3Lh_k&v=1&r=http%3a%2f%2fwww.shortlist.com%2fwin%2fwin-vip-tickets-to-the-king-george-weekend&p=DevEx,5671.1
p454
sg13
g452
sg14
VAre you one of those inherently unlucky people who, no matter how carefully you study the odds, always seem to pick the wrong horse/dog/first scorer?
p455
sg16
(dp456
g18
g452
sg19
g454
sg20
V2017-03-15T09:01:00
p457
sg22
g453
sg23
g455
sg24
Vhttps://api.cognitive.microsoft.com/api/v5/#WebPages.43
p458
ssg26
g458
sg27
Nsg28
g455
sbag1
(g2
g3
Ntp459
Rp460
(dp461
g7
VLeafletting against horse reacing cruelty at Ascot races (King George ...
p462
sg9
Vhttps://allevents.in/ascot/leafletting-against-horse-reacing...
p463
sg11
Vhttps://www.bing.com/cr?IG=1DB1DF7463ED4624964BDC8EA54295C6&CID=1A2DF59A8C68601218F8FFC58D816175&rd=1&h=H91S9iJiN2XmeV6MTSdMVG-_MNTHH3p0XIrLoXp3Sp0&v=1&r=https%3a%2f%2fallevents.in%2fascot%2fleafletting-against-horse-reacing-cruelty-at-ascot-races-king-george-vi-weekend%2f1717893951794125&p=DevEx,5685.1
p464
sg13
g462
sg14
VLeafletting against horse reacing cruelty at Ascot races (King George VI Weekend), Ascot Racecourse, Ascot, United Kingdom. Sat Jul 23 2016 at 11:00 am, Animal Aid leaflets provided, lets educate the public about the cruelty inherent in the horse races.Lesley - 07931 156006
p465
sg16
(dp466
g18
g462
sg19
g464
sg20
V2017-02-02T03:16:00
p467
sg22
g463
sg23
g465
sg24
Vhttps://api.cognitive.microsoft.com/api/v5/#WebPages.44
p468
ssg26
g468
sg27
Nsg28
g465
sba.