(lp0
ccopy_reg
_reconstructor
p1
(cpy_ms_cognitive.py_ms_cognitive_search.py_ms_cognitive_web_search
WebResult
p2
c__builtin__
object
p3
Ntp4
Rp5
(dp6
S'name'
p7
VBouchercon | World Mystery Convention
p8
sS'display_url'
p9
Vwww.bouchercon.com
p10
sS'url'
p11
Vhttp://www.bing.com/cr?IG=CC21914EC1964AE0BB0C11625D61298F&CID=0DD792CC569764903AC69893577E652F&rd=1&h=75SwujEYnG8rTYKnhveKX7tTBQdio9Hnmu3Jgnj3RWU&v=1&r=http%3a%2f%2fwww.bouchercon.com%2f&p=DevEx,5102.1
p12
sS'title'
p13
g8
sS'snippet'
p14
V\u201cAt Bouchercon I discovered a wonderful, supportive, fun, dynamic and exciting world, filled with fascinating, sometimes slightly crazy, people.
p15
sS'json'
p16
(dp17
Vabout
p18
(lp19
(dp20
Vname
p21
VBouchercon
p22
sasg21
g8
sVurl
p23
g12
sVdateLastCrawled
p24
V2017-03-31T06:15:00
p25
sVdisplayUrl
p26
g10
sVsnippet
p27
g15
sVid
p28
Vhttps://api.cognitive.microsoft.com/api/v5/#WebPages.0
p29
ssS'id'
p30
g29
sS'deep_links'
p31
NsS'description'
p32
g15
sbag1
(g2
g3
Ntp33
Rp34
(dp35
g7
VBouchercon 2017 | world mystery convention
p36
sg9
Vbouchercon2017.com
p37
sg11
Vhttp://www.bing.com/cr?IG=CC21914EC1964AE0BB0C11625D61298F&CID=0DD792CC569764903AC69893577E652F&rd=1&h=nJeoSeNtsymmuQ5WsDcMd1aWD2hfTUgrnXIr1yNvMlk&v=1&r=http%3a%2f%2fbouchercon2017.com%2f&p=DevEx,5117.1
p38
sg13
g36
sg14
VWelcome! Grab your passport and join us at the Sheraton Centre in Toronto, Canada for Bouchercon 2017, where we\u2019ll be celebrating all things mystery.
p39
sg16
(dp40
g18
(lp41
(dp42
g21
VBouchercon
p43
sasg21
g36
sg23
g38
sg24
V2017-04-03T00:56:00
p44
sg26
g37
sg27
g39
sg28
Vhttps://api.cognitive.microsoft.com/api/v5/#WebPages.1
p45
ssg30
g45
sg31
Nsg32
g39
sbag1
(g2
g3
Ntp46
Rp47
(dp48
g7
VBouchercon - Wikipedia
p49
sg9
Vhttps://en.wikipedia.org/wiki/Bouchercon_World_Mystery_Convention
p50
sg11
Vhttps://www.bing.com/cr?IG=CC21914EC1964AE0BB0C11625D61298F&CID=0DD792CC569764903AC69893577E652F&rd=1&h=F4-sYJvGLum1j_WW5KQHwZ0W4hr_BkKN2MddMI70yCY&v=1&r=https%3a%2f%2fen.wikipedia.org%2fwiki%2fBouchercon_World_Mystery_Convention&p=DevEx,5132.1
p51
sg13
g49
sg14
VBouchercon, the Anthony Boucher Memorial World Mystery Convention, is an annual convention of creators and devotees of mystery and detective fiction. It is named in honour of writer, reviewer, and editor Anthony Boucher, and pronounced the way he pronounced his name, rhyming with "voucher".
p52
sg16
(dp53
VsnippetAttribution
p54
(dp55
VlicenseNotice
p56
VText under CC-BY-SA license
p57
sVlicense
p58
(dp59
g23
Vhttp://www.bing.com/cr?IG=CC21914EC1964AE0BB0C11625D61298F&CID=0DD792CC569764903AC69893577E652F&rd=1&h=tJYnHtBaEymlKo_fRl0wo_ZHu4dAaCwVMH_BvcixOgM&v=1&r=http%3a%2f%2fcreativecommons.org%2flicenses%2fby-sa%2f3.0%2f&p=DevEx,5892.1
p60
sg21
VCC-BY-SA
p61
sssg21
g49
sg23
g51
sg24
V2017-03-10T04:17:00
p62
sg26
g50
sg27
g52
sg28
Vhttps://api.cognitive.microsoft.com/api/v5/#WebPages.2
p63
ssg30
g63
sg31
Nsg32
g52
sbag1
(g2
g3
Ntp64
Rp65
(dp66
g7
VBouchercon Dallas 2019
p67
sg9
Vbouchercon2019.com
p68
sg11
Vhttp://www.bing.com/cr?IG=CC21914EC1964AE0BB0C11625D61298F&CID=0DD792CC569764903AC69893577E652F&rd=1&h=b6nlnkEzi_E44heMiNVZn_oqmIF9XiiYXMdltqUx2mA&v=1&r=http%3a%2f%2fbouchercon2019.com%2f&p=DevEx,5145.1
p69
sg13
g67
sg14
VBOUCHERCON 2019. DENIM, DIAMONDS, & DEATH. ABOUT; GUESTS OF HONOR; SCHEDULE; MAP; CONTACT; When. OCT 31 - NOV 3. 2019 . Where. DALLAS, TEXAS. Hyatt Regency Dallas. THE WORLD MYSTERY CONVENTION. Welcome to Bouchercon Dallas 2019, where we bring you the world\u2019s premiere annual crime fiction event. Join the mystery community, from authors, fans, publishers, to reviewers, booksellers, and editors, for 4 days of panels, parties, ...
p70
sg16
(dp71
g21
g67
sg23
g69
sg24
V2017-04-02T09:45:00
p72
sg26
g68
sg27
g70
sg28
Vhttps://api.cognitive.microsoft.com/api/v5/#WebPages.3
p73
ssg30
g73
sg31
Nsg32
g70
sbag1
(g2
g3
Ntp74
Rp75
(dp76
g7
VBouchercon 2014: Murder at the Beach
p77
sg9
Vbouchercon2014.com
p78
sg11
Vhttp://www.bing.com/cr?IG=CC21914EC1964AE0BB0C11625D61298F&CID=0DD792CC569764903AC69893577E652F&rd=1&h=nZU6g9YhPeywKprdchGTJuojOvXPUt8fxGiZDN3FhFc&v=1&r=http%3a%2f%2fbouchercon2014.com%2f&p=DevEx,5158.1
p79
sg13
g77
sg14
VBouchercon 2014: Murder at the Beach, in Long Beach, California, November 13-16, 2014
p80
sg16
(dp81
g21
g77
sg23
g79
sg24
V2017-03-31T23:33:00
p82
sg26
g78
sg27
g80
sg28
Vhttps://api.cognitive.microsoft.com/api/v5/#WebPages.4
p83
ssg30
g83
sg31
Nsg32
g80
sbag1
(g2
g3
Ntp84
Rp85
(dp86
g7
VBouchercon World Mystery Convention : Standing Rules
p87
sg9
Vwww.bouchercon.com/board/rules.pdf
p88
sg11
Vhttp://www.bing.com/cr?IG=CC21914EC1964AE0BB0C11625D61298F&CID=0DD792CC569764903AC69893577E652F&rd=1&h=XJG-yzXQttE14vxwTAEFkkNla-alZrxK6HMKPLxruFs&v=1&r=http%3a%2f%2fwww.bouchercon.com%2fboard%2frules.pdf&p=DevEx,5168.1
p89
sg13
g87
sg14
VB O U C H E R C O N  w o r l d m y s t e r y c o n v e n t i o n Standing Rules \u2013 as amended, Bouchercon XLV, Long Beach, November 2014
p90
sg16
(dp91
g21
g87
sg23
g89
sg24
V2017-03-24T18:56:00
p92
sg26
g88
sg27
g90
sg28
Vhttps://api.cognitive.microsoft.com/api/v5/#WebPages.5
p93
ssg30
g93
sg31
Nsg32
g90
sbag1
(g2
g3
Ntp94
Rp95
(dp96
g7
Vbouchercon.info - Bouchercon World Mystery Convention : Home - zonwhois.com
p97
sg9
Vhttps://www.zonwhois.com/www/bouchercon.info.html
p98
sg11
Vhttps://www.bing.com/cr?IG=CC21914EC1964AE0BB0C11625D61298F&CID=0DD792CC569764903AC69893577E652F&rd=1&h=4Mf1BRT_ZTwyuMGSSCJxmL0f-UJKEkd53q-9nhnBtQo&v=1&r=https%3a%2f%2fwww.zonwhois.com%2fwww%2fbouchercon.info.html&p=DevEx,5178.1
p99
sg13
g97
sg14
Vbouchercon.info traffic statistics, monthly earnings and website value. Find more data about bouchercon.info
p100
sg16
(dp101
g21
g97
sg23
g99
sg24
V2017-03-31T15:09:00
p102
sg26
g98
sg27
g100
sg28
Vhttps://api.cognitive.microsoft.com/api/v5/#WebPages.6
p103
ssg30
g103
sg31
Nsg32
g100
sbag1
(g2
g3
Ntp104
Rp105
(dp106
g7
VAbout | Bouchercon 2017
p107
sg9
Vbouchercon2017.com/about
p108
sg11
Vhttp://www.bing.com/cr?IG=CC21914EC1964AE0BB0C11625D61298F&CID=0DD792CC569764903AC69893577E652F&rd=1&h=aFgwcZMH_sprXKqOdSMEFogZhk2GF_pObbA77bF0kxQ&v=1&r=http%3a%2f%2fbouchercon2017.com%2fabout%2f&p=DevEx,5190.1
p109
sg13
g107
sg14
VWhat is Bouchercon? The World Mystery Convention is a nonprofit, all-volunteer organization which holds an annual convention in honor of Anthony Boucher, the distinguished mystery fiction critic, editor and author.
p110
sg16
(dp111
g21
g107
sg23
g109
sg24
V2017-04-04T01:11:00
p112
sg26
g108
sg27
g110
sg28
Vhttps://api.cognitive.microsoft.com/api/v5/#WebPages.7
p113
ssg30
g113
sg31
Nsg32
g110
sbag1
(g2
g3
Ntp114
Rp115
(dp116
g7
VBouchercon 2020/Sacramento \u2013 Where Murder is a Capitol Crime
p117
sg9
Vbouchercon2020.org
p118
sg11
Vhttp://www.bing.com/cr?IG=CC21914EC1964AE0BB0C11625D61298F&CID=0DD792CC569764903AC69893577E652F&rd=1&h=CDdn9pmC8K1VKWoHjfYWOtmtIwCuaBfhm7c_CtDf-mY&v=1&r=http%3a%2f%2fbouchercon2020.org%2f&p=DevEx,5202.1
p119
sg13
g117
sg14
Vbouchercon 2020: october 15-18 IN SACRAMENTO, CALIFORNIA. The World Mystery Convention is a nonprofit, all-volunteer organization which holds an annual convention in honor of Anthony Boucher, the distinguished mystery fiction critic, editor and author.
p120
sg16
(dp121
g21
g117
sg23
g119
sg24
V2017-04-02T18:38:00
p122
sg26
g118
sg27
g120
sg28
Vhttps://api.cognitive.microsoft.com/api/v5/#WebPages.8
p123
ssg30
g123
sg31
Nsg32
g120
sbag1
(g2
g3
Ntp124
Rp125
(dp126
g7
VPlesk 12.5.30
p127
sg9
Vhttps://h106.plesklogin.net:8443
p128
sg11
Vhttps://www.bing.com/cr?IG=CC21914EC1964AE0BB0C11625D61298F&CID=0DD792CC569764903AC69893577E652F&rd=1&h=Fnd65-D_YP_EGspoIX0NnFu7zHRLX5hCYt7wLP7pA9M&v=1&r=https%3a%2f%2fh106.plesklogin.net%3a8443%2f&p=DevEx,5213.1
p129
sg13
g127
sg14
VLog in.  2016 Parallels IP Holdings GmbH. All rights reserved.
p130
sg16
(dp131
g21
g127
sg23
g129
sg24
V2017-04-02T06:25:00
p132
sg26
g128
sg27
g130
sg28
Vhttps://api.cognitive.microsoft.com/api/v5/#WebPages.9
p133
ssg30
g133
sg31
Nsg32
g130
sbag1
(g2
g3
Ntp134
Rp135
(dp136
g7
VBouchercon.info - Bouchercon World Mystery Convention : Home - webwiki.com
p137
sg9
Vhttps://www.webwiki.com/bouchercon.info
p138
sg11
Vhttps://www.bing.com/cr?IG=CC21914EC1964AE0BB0C11625D61298F&CID=0DD792CC569764903AC69893577E652F&rd=1&h=ws7eCWrWKaVL7dJZylrE-iVTTTwCYpKXUPlsViTyMbY&v=1&r=https%3a%2f%2fwww.webwiki.com%2fbouchercon.info&p=DevEx,5224.1
p139
sg13
g137
sg14
VContent and keywords. Bouchercon, the Anthony Boucher Memorial World Mystery Convention, is an annual convention of creators and devotees of mystery and detective fiction.
p140
sg16
(dp141
g21
g137
sg23
g139
sg24
V2017-02-14T18:01:00
p142
sg26
g138
sg27
g140
sg28
Vhttps://api.cognitive.microsoft.com/api/v5/#WebPages.10
p143
ssg30
g143
sg31
Nsg32
g140
sbag1
(g2
g3
Ntp144
Rp145
(dp146
g7
VBouchercon 2012 - Boucher Real Estate Press
p147
sg9
Vbouchercon2012.com
p148
sg11
Vhttp://www.bing.com/cr?IG=CC21914EC1964AE0BB0C11625D61298F&CID=0DD792CC569764903AC69893577E652F&rd=1&h=ThKGV89fozBXvRZrG2hBaCa6gFF0R5aXBfeOsHAgOn8&v=1&r=http%3a%2f%2fbouchercon2012.com%2f&p=DevEx,5237.1
p149
sg13
g147
sg14
VAnaheim additionally boasts entertainment sites and world class assembly with the Anaheim Convention Center, LEED- certified as well as the biggest on Angel Stadium of Anaheim, Honda Center, City National Grove of Anaheim, Anaheim GardenWalk, and the west shore. Additionally, Anaheim covers its lively ethnic arts community, for example, world-famous Anaheim Ballet.
p150
sg16
(dp151
g21
g147
sg23
g149
sg24
V2017-03-11T09:29:00
p152
sg26
g148
sg27
g150
sg28
Vhttps://api.cognitive.microsoft.com/api/v5/#WebPages.11
p153
ssg30
g153
sg31
Nsg32
g150
sbag1
(g2
g3
Ntp154
Rp155
(dp156
g7
VEQMM to Be Special Guest at Passport to Murder, the 2017 Bouchercon ...
p157
sg9
Vhttps://somethingisgoingtohappen.net/2016/11/09/eqmm-to-be-special...
p158
sg11
Vhttps://www.bing.com/cr?IG=CC21914EC1964AE0BB0C11625D61298F&CID=0DD792CC569764903AC69893577E652F&rd=1&h=a3RwRtV2vzLy5zmEJP3T3Xswmcf-IVRV13tqr8dir_Y&v=1&r=https%3a%2f%2fsomethingisgoingtohappen.net%2f2016%2f11%2f09%2feqmm-to-be-special-guest-at-passport-to-murder-the-2017-bouchercon-world-mystery-convention-in-toronto-from-october-12-15%2f&p=DevEx,5249.1
p159
sg13
g157
sg14
VA couple of months ago, in the midst of our celebration of EQMM\u2019s 75 th anniversary year, our staff received the delightful news that the magazine will be honored for \u201cDistinguished Contribution to the Genre\u201d at the next Bouchercon World Mystery Convention, in Toronto, Canada.
p160
sg16
(dp161
g21
g157
sg23
g159
sg24
V2017-03-14T11:22:00
p162
sg26
g158
sg27
g160
sg28
Vhttps://api.cognitive.microsoft.com/api/v5/#WebPages.12
p163
ssg30
g163
sg31
Nsg32
g160
sbag1
(g2
g3
Ntp164
Rp165
(dp166
g7
VBouchercon, the World Mystery Convention: Why crime thrillers are still ...
p167
sg9
Vwww.independent.co.uk/arts-entertainment/books/features/bouchercon...
p168
sg11
Vhttp://www.bing.com/cr?IG=CC21914EC1964AE0BB0C11625D61298F&CID=0DD792CC569764903AC69893577E652F&rd=1&h=8U76qaxIxW5eP881tGEc3yo_b89-B4ftc4p2PpHJdE0&v=1&r=http%3a%2f%2fwww.independent.co.uk%2farts-entertainment%2fbooks%2ffeatures%2fbouchercon-the-world-mystery-convention-why-crime-thrillers-are-still-popular-despite-crime-levels-a7320326.html&p=DevEx,5266.1
p169
sg13
g167
sg14
VCulture; Books; Features; Bouchercon, the World Mystery Convention: Why crime thrillers are still popular, despite crime levels going down
p170
sg16
(dp171
g21
g167
sg23
g169
sg24
V2017-04-02T16:41:00
p172
sg26
g168
sg27
g170
sg28
Vhttps://api.cognitive.microsoft.com/api/v5/#WebPages.13
p173
ssg30
g173
sg31
Nsg32
g170
sbag1
(g2
g3
Ntp174
Rp175
(dp176
g7
VBouchercon 2016: The World Mystery Convention | Berkeley Mystery Fiction
p177
sg9
Vhttps://berkeleymysteryfiction.com/2015/12/09/bouchercon-2016-the...
p178
sg11
Vhttps://www.bing.com/cr?IG=CC21914EC1964AE0BB0C11625D61298F&CID=0DD792CC569764903AC69893577E652F&rd=1&h=adm68zugABwUy5ULb60E-FCKOqoF9JFFT_JUrezqqHo&v=1&r=https%3a%2f%2fberkeleymysteryfiction.com%2f2015%2f12%2f09%2fbouchercon-2016-the-world-mystery-convention-new-orleans-louisiana%2f&p=DevEx,5279.1
p179
sg13
g177
sg14
VWhat is Bouchercon? Bouchercon is the Annual World Mystery Convention, where every year readers, writers, publishers, editors, agents, booksellers and other lovers of crime fiction gather for a long weekend of education, entertainment, and fun.
p180
sg16
(dp181
g21
g177
sg23
g179
sg24
V2017-01-19T01:40:00
p182
sg26
g178
sg27
g180
sg28
Vhttps://api.cognitive.microsoft.com/api/v5/#WebPages.14
p183
ssg30
g183
sg31
Nsg32
g180
sbag1
(g2
g3
Ntp184
Rp185
(dp186
g7
VOn to Bouchercon | Maine Crime Writers
p187
sg9
Vmainecrimewriters.com/pauls-posts/on-to-bouchercon
p188
sg11
Vhttp://www.bing.com/cr?IG=CC21914EC1964AE0BB0C11625D61298F&CID=0DD792CC569764903AC69893577E652F&rd=1&h=bpICDK-hT2IX7_nmTtmd2zy_woE_CIO0oQyQqQGELko&v=1&r=http%3a%2f%2fmainecrimewriters.com%2fpauls-posts%2fon-to-bouchercon&p=DevEx,5293.1
p189
sg13
g187
sg14
VPaul Doiron here \u2014 In two days I will be headed to St. Louis to attend the 2011 Bouchercon World Mystery Convention. This will be my third Bouchercon (following Indianapolis and San Francisco), but the first in which my name will be on the program.
p190
sg16
(dp191
g21
g187
sg23
g189
sg24
V2017-03-18T14:48:00
p192
sg26
g188
sg27
g190
sg28
Vhttps://api.cognitive.microsoft.com/api/v5/#WebPages.15
p193
ssg30
g193
sg31
Nsg32
g190
sbag1
(g2
g3
Ntp194
Rp195
(dp196
g7
VBouchercon - MysteryNet.com
p197
sg9
Vwww.mysterynet.com/bouchercon
p198
sg11
Vhttp://www.bing.com/cr?IG=CC21914EC1964AE0BB0C11625D61298F&CID=0DD792CC569764903AC69893577E652F&rd=1&h=0e08bRiaFVPtiGS79OIaoo_yFrxOfWDDSoYnetqGUm4&v=1&r=http%3a%2f%2fwww.mysterynet.com%2fbouchercon%2f&p=DevEx,5306.1
p199
sg13
g197
sg14
VMystery Convention Bouchercon is the oldest and largest annual convention of mystery fans, mystery authors, mystery publishers, mystery book dealers, mystery book stores and mystery publishing agents. The Bouchercon mystery convention event is named for late mystery author, mystery editor, mystery critic (and mystery fan), Anthony Boucher. Please send updates to Mystery Net lists more [\u2026]
p200
sg16
(dp201
g18
(lp202
(dp203
g21
VBouchercon
p204
sasg21
g197
sg23
g199
sg24
V2017-03-27T01:46:00
p205
sg26
g198
sg27
g200
sg28
Vhttps://api.cognitive.microsoft.com/api/v5/#WebPages.16
p206
ssg30
g206
sg31
Nsg32
g200
sbag1
(g2
g3
Ntp207
Rp208
(dp209
g7
VBouchercon.info Bouchercon World Mystery Convention : Hom - Pagesstudy
p210
sg9
Vbouchercon.info.pagesstudy.com
p211
sg11
Vhttp://www.bing.com/cr?IG=CC21914EC1964AE0BB0C11625D61298F&CID=0DD792CC569764903AC69893577E652F&rd=1&h=rsE9Q9wtU76BhHVdZYIznHp1pN9Ipo30BSZ1h_T5GGw&v=1&r=http%3a%2f%2fbouchercon.info.pagesstudy.com%2f&p=DevEx,5317.1
p212
sg13
g210
sg14
VYes! Site Bouchercon.info now online. Bouchercon World Mystery Convention : Home Bouchercon.info is at the age of #47. Alexa ranks on #6,434,130 in the world ranking.
p213
sg16
(dp214
g21
g210
sg23
g212
sg24
V2017-03-21T15:32:00
p215
sg26
g211
sg27
g213
sg28
Vhttps://api.cognitive.microsoft.com/api/v5/#WebPages.17
p216
ssg30
g216
sg31
Nsg32
g213
sbag1
(g2
g3
Ntp217
Rp218
(dp219
g7
VBouchercon | Facebook
p220
sg9
Vwww.facebook.com/Bouchercon
p221
sg11
Vhttp://www.bing.com/cr?IG=CC21914EC1964AE0BB0C11625D61298F&CID=0DD792CC569764903AC69893577E652F&rd=1&h=ubRjo7HxVmw-3K6EffkvqvaSuZoBMMFVPRIu4rJZdq4&v=1&r=http%3a%2f%2fwww.facebook.com%2fBouchercon&p=DevEx,5338.1
p222
sg13
g220
sg14
VBouchercon. 4,823 likes  148 talking about this  740 were here. Bouchercon is an annual convention of mystery readers, fans, writers, and enthusiasts.... Facebook. Email or Phone: Password: Forgot account? See more of Bouchercon by logging into Facebook. ... World Mystery Convention. bouchercon2018.com. Bouchercon  March 8 at 1:11pm  # 7monthstogo!! Welcome, welcome!!
p223
sg16
(dp224
g18
(lp225
(dp226
g21
VBouchercon
p227
sasg21
g220
sg23
g222
sg24
V2017-03-12T06:03:00
p228
sg26
g221
sg27
g223
sg28
Vhttps://api.cognitive.microsoft.com/api/v5/#WebPages.18
p229
ssg30
g229
sg31
Nsg32
g223
sbag1
(g2
g3
Ntp230
Rp231
(dp232
g7
VBouchercon World Mystery Convention - Parker Francis
p233
sg9
Vparkerfrancis.com/2016/09/bouchercon-world-mystery-convention
p234
sg11
Vhttp://www.bing.com/cr?IG=CC21914EC1964AE0BB0C11625D61298F&CID=0DD792CC569764903AC69893577E652F&rd=1&h=I2wfUV_GNV4_eFWaF7oNbZOFTGMUstjQwykiLgYTKjs&v=1&r=http%3a%2f%2fparkerfrancis.com%2f2016%2f09%2fbouchercon-world-mystery-convention%2f&p=DevEx,5350.1
p235
sg13
g233
sg14
VI recently returned from the Bouchercon World Mystery Convention in New Orleans, everyone's favorite party city. I've heard my fellow authors rave about Bo
p236
sg16
(dp237
g21
g233
sg23
g235
sg24
V2017-04-03T01:23:00
p238
sg26
g234
sg27
g236
sg28
Vhttps://api.cognitive.microsoft.com/api/v5/#WebPages.19
p239
ssg30
g239
sg31
Nsg32
g236
sbag1
(g2
g3
Ntp240
Rp241
(dp242
g7
VBouchercon World Mystery Convention 2016 MP3s
p243
sg9
Vvwtapes.com/bouchercon2016mp3s.aspx
p244
sg11
Vhttp://www.bing.com/cr?IG=CC21914EC1964AE0BB0C11625D61298F&CID=0DD792CC569764903AC69893577E652F&rd=1&h=XKrqYPmVFdnq08m8C0kJ_tsXKzalXq6v2BL4v3TcmLg&v=1&r=http%3a%2f%2fvwtapes.com%2fbouchercon2016mp3s.aspx&p=DevEx,5362.1
p245
sg13
g243
sg14
VMP3s from the annual Bouchercon World Mystery Convention 2016 conference in honor of Anthony Boucher featuring sessions for the mystery and crime fiction community.
p246
sg16
(dp247
g21
g243
sg23
g245
sg24
V2017-03-03T11:12:00
p248
sg26
g244
sg27
g246
sg28
Vhttps://api.cognitive.microsoft.com/api/v5/#WebPages.20
p249
ssg30
g249
sg31
Nsg32
g246
sbag1
(g2
g3
Ntp250
Rp251
(dp252
g7
VTo Write A Mystery Novel, Learn About the Genre. Here's How.
p253
sg9
Vhttps://www.thebalance.com/to-write-a-mystery-novel-learn-about...
p254
sg11
Vhttps://www.bing.com/cr?IG=CC21914EC1964AE0BB0C11625D61298F&CID=0DD792CC569764903AC69893577E652F&rd=1&h=afQvisf3Bt57ix4c2p8GzzdJZKENtgarA-Y2vMrZOxk&v=1&r=https%3a%2f%2fwww.thebalance.com%2fto-write-a-mystery-novel-learn-about-the-genre-here-s-how-2799924&p=DevEx,5375.1
p255
sg13
g253
sg14
VBouchercon World Mystery Convention- Bouchercon is an annual conference focusing on mystery and crime fiction and is a great place to mingle with like-minded writers. Bouchercon is generally held in the fall (the location changes annually). A highlight of the conference are the Anthony Awards, which are voted on by the attendees and are presented at the convention.
p256
sg16
(dp257
g21
g253
sg23
g255
sg24
V2017-04-03T15:20:00
p258
sg26
g254
sg27
g256
sg28
Vhttps://api.cognitive.microsoft.com/api/v5/#WebPages.21
p259
ssg30
g259
sg31
Nsg32
g256
sbag1
(g2
g3
Ntp260
Rp261
(dp262
g7
VBouchercon World Mystery Convention - 10times.com
p263
sg9
V10times.com/world-mystery-convention
p264
sg11
Vhttp://www.bing.com/cr?IG=CC21914EC1964AE0BB0C11625D61298F&CID=0DD792CC569764903AC69893577E652F&rd=1&h=0FQgTOk6JqWZEUiFDOdd7tEFYYsnMseuRSSmyY_tZNM&v=1&r=http%3a%2f%2f10times.com%2fworld-mystery-convention&p=DevEx,5388.1
p265
sg13
g263
sg14
VBouchercon World Mystery Convention is a 4 day event being held from 15th September to the 18th September 2016 at the New Orleans Marriott Hotel in New Orleans, USA.
p266
sg16
(dp267
g21
g263
sg23
g265
sg24
V2017-03-12T14:37:00
p268
sg26
g264
sg27
g266
sg28
Vhttps://api.cognitive.microsoft.com/api/v5/#WebPages.22
p269
ssg30
g269
sg31
Nsg32
g266
sbag1
(g2
g3
Ntp270
Rp271
(dp272
g7
VBouchercon World Mystery Convention 2012 CDs
p273
sg9
Vvwtapes.com/bouchercon2012cds.aspx
p274
sg11
Vhttp://www.bing.com/cr?IG=CC21914EC1964AE0BB0C11625D61298F&CID=0DD792CC569764903AC69893577E652F&rd=1&h=rDbTj3aMhUwir-jaFHw3hfVLLWhxtwu--gCPiniUHJU&v=1&r=http%3a%2f%2fvwtapes.com%2fbouchercon2012cds.aspx&p=DevEx,5400.1
p275
sg13
g273
sg14
VCDs from the annual Bouchercon World Mystery Convention 2012 conference in honor of Anthony Boucher featuring sessions for the mystery and crime fiction community.
p276
sg16
(dp277
g21
g273
sg23
g275
sg24
V2017-03-21T19:13:00
p278
sg26
g274
sg27
g276
sg28
Vhttps://api.cognitive.microsoft.com/api/v5/#WebPages.23
p279
ssg30
g279
sg31
Nsg32
g276
sbag1
(g2
g3
Ntp280
Rp281
(dp282
g7
VBouchercon - WOW.com
p283
sg9
Vwww.wow.com/wiki/Bouchercon
p284
sg11
Vhttp://www.bing.com/cr?IG=CC21914EC1964AE0BB0C11625D61298F&CID=0DD792CC569764903AC69893577E652F&rd=1&h=N6piutxcjZusVNvUA0zOzlQF38WHBroRAnxvUAo-U24&v=1&r=http%3a%2f%2fwww.wow.com%2fwiki%2fBouchercon&p=DevEx,5412.1
p285
sg13
g283
sg14
VBouchercon, the Anthony Boucher Memorial World Mystery Convention, is an annual convention of creators and devotees of mystery and detective fiction. It is named in honour of writer, reviewer, and editor Anthony Boucher, and pronounced the way he pronounced his name, rhyming with "voucher".
p286
sg16
(dp287
g21
g283
sg23
g285
sg24
V2017-02-24T19:38:00
p288
sg26
g284
sg27
g286
sg28
Vhttps://api.cognitive.microsoft.com/api/v5/#WebPages.24
p289
ssg30
g289
sg31
Nsg32
g286
sbag1
(g2
g3
Ntp290
Rp291
(dp292
g7
VFaqs - Bouchercon 2014: Murder at the Beach
p293
sg9
Vbouchercon2014.com/faqs.php
p294
sg11
Vhttp://www.bing.com/cr?IG=CC21914EC1964AE0BB0C11625D61298F&CID=0DD792CC569764903AC69893577E652F&rd=1&h=EE9Zo5N43eAVvQIq_hMRYQS3z1lQrZpBwK0S4wjQ8zI&v=1&r=http%3a%2f%2fbouchercon2014.com%2ffaqs.php&p=DevEx,5425.1
p295
sg13
g293
sg14
VFAQs What is Bouchercon? B ouchercon is the Annual World Mystery Convention, where every year readers, writers, publishers, editors, agents, booksellers and other lovers of crime fiction gather for a long weekend of education, entertainment, and fun.
p296
sg16
(dp297
g21
g293
sg23
g295
sg24
V2017-03-28T23:33:00
p298
sg26
g294
sg27
g296
sg28
Vhttps://api.cognitive.microsoft.com/api/v5/#WebPages.25
p299
ssg30
g299
sg31
Nsg32
g296
sbag1
(g2
g3
Ntp300
Rp301
(dp302
g7
VBouchercon XXIV - Wikipedia
p303
sg9
Vhttps://en.wikipedia.org/wiki/1993_Anthony_award
p304
sg11
Vhttps://www.bing.com/cr?IG=CC21914EC1964AE0BB0C11625D61298F&CID=0DD792CC569764903AC69893577E652F&rd=1&h=WKF5P8_q2fmTO4DwgRoSnCt3o9YMJIRZOZSrpVcb53o&v=1&r=https%3a%2f%2fen.wikipedia.org%2fwiki%2f1993_Anthony_award&p=DevEx,5443.1
p305
sg13
g303
sg14
VBouchercon is an annual convention of creators and devotees of mystery and detective fiction. It is named in honour of writer, reviewer, and editor Anthony Boucher; also the inspiration for the Anthony Awards, which have been issued at the convention since 1986. This page details Bouchercon XXIV and the 8th Anthony Awards ceremony.
p306
sg16
(dp307
g54
(dp308
g56
VText under CC-BY-SA license
p309
sg58
(dp310
g23
Vhttp://www.bing.com/cr?IG=CC21914EC1964AE0BB0C11625D61298F&CID=0DD792CC569764903AC69893577E652F&rd=1&h=tJYnHtBaEymlKo_fRl0wo_ZHu4dAaCwVMH_BvcixOgM&v=1&r=http%3a%2f%2fcreativecommons.org%2flicenses%2fby-sa%2f3.0%2f&p=DevEx,5893.1
p311
sg21
VCC-BY-SA
p312
sssg21
g303
sg23
g305
sg24
V2017-02-19T12:56:00
p313
sg26
g304
sg27
g306
sg28
Vhttps://api.cognitive.microsoft.com/api/v5/#WebPages.26
p314
ssg30
g314
sg31
Nsg32
g306
sbag1
(g2
g3
Ntp315
Rp316
(dp317
g7
V2016 Bouchercon World Mystery Writers Convention Headed to New Orleans ...
p318
sg9
Vwww.whereyat.com/2016-bouchercon-world-mystery-writers
p319
sg11
Vhttp://www.bing.com/cr?IG=CC21914EC1964AE0BB0C11625D61298F&CID=0DD792CC569764903AC69893577E652F&rd=1&h=HoGT60v1kjW58oDiYRnsDO_X0FT1D3VyAofxyB-W3kk&v=1&r=http%3a%2f%2fwww.whereyat.com%2f2016-bouchercon-world-mystery-writers&p=DevEx,5460.1
p320
sg13
g318
sg14
VNew Orleans readers and writers alike, mark your calendars for Blood on the Bayou, the HUGE Bouchercon [rhymes with \u2018voucher\u2019 con] World Mystery Writers Convention held annually across the
p321
sg16
(dp322
g21
g318
sg23
g320
sg24
V2017-03-31T15:48:00
p323
sg26
g319
sg27
g321
sg28
Vhttps://api.cognitive.microsoft.com/api/v5/#WebPages.27
p324
ssg30
g324
sg31
Nsg32
g321
sbag1
(g2
g3
Ntp325
Rp326
(dp327
g7
VBouchercon (World Mystery Convention) \u2013 Charlaine Harris
p328
sg9
Vcharlaineharris.com/?event=bouchercon-world-mystery-convention
p329
sg11
Vhttp://www.bing.com/cr?IG=CC21914EC1964AE0BB0C11625D61298F&CID=0DD792CC569764903AC69893577E652F&rd=1&h=6uzBdlxYhDQcAh4uUKx0OGGQMxGeWyVopYta2ODk81Q&v=1&r=http%3a%2f%2fcharlaineharris.com%2f%3fevent%3dbouchercon-world-mystery-convention&p=DevEx,5473.1
p330
sg13
g328
sg14
VDate/Time Date(s) - 11/13/2014 - 11/17/2014 All Day. Location Hyatt Regency Long Beach. Categories. Convention Appearance; World Mystery Convention, Long Beach, CA.
p331
sg16
(dp332
g21
g328
sg23
g330
sg24
V2017-03-30T12:27:00
p333
sg26
g329
sg27
g331
sg28
Vhttps://api.cognitive.microsoft.com/api/v5/#WebPages.28
p334
ssg30
g334
sg31
Nsg32
g331
sbag1
(g2
g3
Ntp335
Rp336
(dp337
g7
VBouchercon 2012: Crime Fiction Rocks Cleveland
p338
sg9
Vwww.publishersweekly.com/pw/by-topic/industry-news/trade-shows...
p339
sg11
Vhttp://www.bing.com/cr?IG=CC21914EC1964AE0BB0C11625D61298F&CID=0DD792CC569764903AC69893577E652F&rd=1&h=Gi_vB7WxHU3uqHo8gagcmoq-vTyj3O_ksqrE6TDsw_Q&v=1&r=http%3a%2f%2fwww.publishersweekly.com%2fpw%2fby-topic%2findustry-news%2ftrade-shows-events%2farticle%2f54276-bouchercon-2012-crime-fiction-rocks-cleveland.html&p=DevEx,5491.1
p340
sg13
g338
sg14
VCleveland played host to the annual Bouchercon World Mystery Convention, an event for crime fiction authors and fans that drew approximately 1,500 registered attendees.
p341
sg16
(dp342
g21
g338
sg23
g340
sg24
V2017-03-24T19:36:00
p343
sg26
g339
sg27
g341
sg28
Vhttps://api.cognitive.microsoft.com/api/v5/#WebPages.29
p344
ssg30
g344
sg31
Nsg32
g341
sbag1
(g2
g3
Ntp345
Rp346
(dp347
g7
Vbouchercon.info - Bouchercon World Mystery Convention : Home - znwhs.net
p348
sg9
Vwww.znwhs.net/www/bouchercon.info.html
p349
sg11
Vhttp://www.bing.com/cr?IG=CC21914EC1964AE0BB0C11625D61298F&CID=0DD792CC569764903AC69893577E652F&rd=1&h=Q6s86oXH42j8q_0GmsKTwG4Iax9q40sLo8Qtjqd3-tE&v=1&r=http%3a%2f%2fwww.znwhs.net%2fwww%2fbouchercon.info.html&p=DevEx,5503.1
p350
sg13
g348
sg14
Vbouchercon.info was first crated on 2005-04-25. The domains expiry date is 2013-04-25
p351
sg16
(dp352
g21
g348
sg23
g350
sg24
V2017-03-28T13:55:00
p353
sg26
g349
sg27
g351
sg28
Vhttps://api.cognitive.microsoft.com/api/v5/#WebPages.30
p354
ssg30
g354
sg31
Nsg32
g351
sbag1
(g2
g3
Ntp355
Rp356
(dp357
g7
VMurder at The Beach Bouchercon 2014 - Long Beach
p358
sg9
Vbcon2014.blogspot.com/2014/05
p359
sg11
Vhttp://www.bing.com/cr?IG=CC21914EC1964AE0BB0C11625D61298F&CID=0DD792CC569764903AC69893577E652F&rd=1&h=TG0tv-_4NkhofBBSqGK1Fbycs70W1dFaHiDggAFnqP8&v=1&r=http%3a%2f%2fbcon2014.blogspot.com%2f2014%2f05%2f&p=DevEx,5514.1
p360
sg13
g358
sg14
VMurder at The Beach: Bouchercon 2014 - Long Beach is the 45th annual World Mystery Conference celebrating mystery and crime fiction. On November 13 - 16, 2014, readers, writers, publishers, editors, agents, ... We will be presenting Anthony Awards in eight categories at the 45th annual Bouchercon World Mystery Convention this year in November.
p361
sg16
(dp362
g21
g358
sg23
g360
sg24
V2017-04-09T19:09:00
p363
sg26
g359
sg27
g361
sg28
Vhttps://api.cognitive.microsoft.com/api/v5/#WebPages.31
p364
ssg30
g364
sg31
Nsg32
g361
sbag1
(g2
g3
Ntp365
Rp366
(dp367
g7
VBouchercon World Mystery Convention 2008 Held in Baltimore
p368
sg9
Vlj.libraryjournal.com/.../bouchercon-world-mystery-convention-2008...
p369
sg11
Vhttp://www.bing.com/cr?IG=CC21914EC1964AE0BB0C11625D61298F&CID=0DD792CC569764903AC69893577E652F&rd=1&h=vkxjj4mD--UimTrPvdPaYxompgxLvZH15KpL6M4Zr2E&v=1&r=http%3a%2f%2flj.libraryjournal.com%2f2008%2f10%2fawards%2fbouchercon-world-mystery-convention-2008-held-in-baltimore%2f&p=DevEx,5526.1
p370
sg13
g368
sg14
VEvent attracts 1442 writers, editors, publishers, and fans Laura Lippman, John Harvey, and Lawrence Block among award winners Friday night auction benefits Enoch Pratt Free Library For four days (Oct. 9-12) Baltimore played host to the 39 th annual Bouchercon World Mystery Convention, attracting
p371
sg16
(dp372
g21
g368
sg23
g370
sg24
V2017-03-03T06:23:00
p373
sg26
g369
sg27
g371
sg28
Vhttps://api.cognitive.microsoft.com/api/v5/#WebPages.32
p374
ssg30
g374
sg31
Nsg32
g371
sbag1
(g2
g3
Ntp375
Rp376
(dp377
g7
VElementary, My Dear Indy: Bouchercon 2009 - Publishers Weekly
p378
sg9
Vwww.publishersweekly.com/pw/by-topic/international/trade-shows/...
p379
sg11
Vhttp://www.bing.com/cr?IG=CC21914EC1964AE0BB0C11625D61298F&CID=0DD792CC569764903AC69893577E652F&rd=1&h=QWm47IBj15x_nxx_maO6DJhRXDk-OZowzjwZEwS901U&v=1&r=http%3a%2f%2fwww.publishersweekly.com%2fpw%2fby-topic%2finternational%2ftrade-shows%2farticle%2f4959-elementary-my-dear-indy-bouchercon-2009.html&p=DevEx,5545.1
p380
sg13
g378
sg14
VThis past weekend's Bouchercon World Mystery Convention drew almost 1,700 fans to Indianapolis where Michael Connelly was the Guest of Honor.
p381
sg16
(dp382
g21
g378
sg23
g380
sg24
V2017-03-17T17:02:00
p383
sg26
g379
sg27
g381
sg28
Vhttps://api.cognitive.microsoft.com/api/v5/#WebPages.33
p384
ssg30
g384
sg31
Nsg32
g381
sbag1
(g2
g3
Ntp385
Rp386
(dp387
g7
VBouchercon Mystery Convention: Murder at the Beach - Hannah Dennison
p388
sg9
Vwww.hannahdennison.com/appearance/bouchercon-mystery-convention...
p389
sg11
Vhttp://www.bing.com/cr?IG=CC21914EC1964AE0BB0C11625D61298F&CID=0DD792CC569764903AC69893577E652F&rd=1&h=KGmU5O7-dTbLXpKuXIuclVezcdbkCbSeZHm1xJ19cpU&v=1&r=http%3a%2f%2fwww.hannahdennison.com%2fappearance%2fbouchercon-mystery-convention-murder-beach%2f&p=DevEx,5556.1
p390
sg13
g388
sg14
VWhat is Bouchercon? B ouchercon is the Annual World Mystery Convention, where every year readers, writers, publishers, editors, agents, booksellers and other lovers of crime fiction gather for a long weekend of education, entertainment, and fun.
p391
sg16
(dp392
g21
g388
sg23
g390
sg24
V2017-03-23T08:32:00
p393
sg26
g389
sg27
g391
sg28
Vhttps://api.cognitive.microsoft.com/api/v5/#WebPages.34
p394
ssg30
g394
sg31
Nsg32
g391
sbag1
(g2
g3
Ntp395
Rp396
(dp397
g7
VBoucheron: World Mystery Convention | The Book Resort
p398
sg9
Vthebookresort.blogspot.com/2009/10/world-mystery-convention...
p399
sg11
Vhttp://www.bing.com/cr?IG=CC21914EC1964AE0BB0C11625D61298F&CID=0DD792CC569764903AC69893577E652F&rd=1&h=reKgW5rIQBLjQIfr--mb648UXbJwCYU-2yxKP-K58UQ&v=1&r=http%3a%2f%2fthebookresort.blogspot.com%2f2009%2f10%2fworld-mystery-convention-indianapolis.html%23!&p=DevEx,5569.1
p400
sg13
g398
sg14
VWhat is Bouchercon? Bouchercon, the World Mystery Convention, celebrates the mystery genre. It is the largest annual meeting in the world for mystery lovers.
p401
sg16
(dp402
g21
g398
sg23
g400
sg24
V2017-02-26T12:08:00
p403
sg26
g399
sg27
g401
sg28
Vhttps://api.cognitive.microsoft.com/api/v5/#WebPages.35
p404
ssg30
g404
sg31
Nsg32
g401
sbag1
(g2
g3
Ntp405
Rp406
(dp407
g7
VBouchercon 2007 - The Conference and Awards Center
p408
sg9
Vwww.bouchercon2007.com
p409
sg11
Vhttp://www.bing.com/cr?IG=CC21914EC1964AE0BB0C11625D61298F&CID=0DD792CC569764903AC69893577E652F&rd=1&h=ufcJh3L-AuJNIQ3Yj05N4xXI34Bi_2-x0WDgiST5pOw&v=1&r=http%3a%2f%2fwww.bouchercon2007.com%2f&p=DevEx,5581.1
p410
sg13
g408
sg14
VThe Solution to All Your Facial Woes For generations men and women have had to fight the pesky dirt and bacteria that causes facial acne. Scientists and
p411
sg16
(dp412
g21
g408
sg23
g410
sg24
V2017-03-31T05:15:00
p413
sg26
g409
sg27
g411
sg28
Vhttps://api.cognitive.microsoft.com/api/v5/#WebPages.36
p414
ssg30
g414
sg31
Nsg32
g411
sbag1
(g2
g3
Ntp415
Rp416
(dp417
g7
VBouchercon (@Bouchercon) | Twitter
p418
sg9
Vhttps://twitter.com/Bouchercon
p419
sg11
Vhttps://www.bing.com/cr?IG=CC21914EC1964AE0BB0C11625D61298F&CID=0DD792CC569764903AC69893577E652F&rd=1&h=Uwjg0DJwuCgoxOoVyPb9Katl_G69m9ICW_wZ0SDvoIQ&v=1&r=https%3a%2f%2ftwitter.com%2fBouchercon&p=DevEx,5598.1
p420
sg13
g418
sg14
VThe latest Tweets from Bouchercon (@Bouchercon). Official Twitter feed for the annual World Mystery Convention. Coming up: October 12-15, 2017. Toronto, Ontario
p421
sg16
(dp422
g21
g418
sg23
g420
sg24
V2017-03-31T22:36:00
p423
sg26
g419
sg27
g421
sg28
Vhttps://api.cognitive.microsoft.com/api/v5/#WebPages.37
p424
ssg30
g424
sg31
Nsg32
g421
sbag1
(g2
g3
Ntp425
Rp426
(dp427
g7
VThe World's Largest Mystery Convention: #Bouchercon
p428
sg9
Vwww.mysteryplayground.net/...worlds-largest-mystery-convention.html
p429
sg11
Vhttp://www.bing.com/cr?IG=CC21914EC1964AE0BB0C11625D61298F&CID=0DD792CC569764903AC69893577E652F&rd=1&h=ZGUId7LNZALp0ZZ6pBfD2xLOVL9bi7uBMsYl6mrlXLE&v=1&r=http%3a%2f%2fwww.mysteryplayground.net%2f2014%2f11%2fthe-worlds-largest-mystery-convention.html&p=DevEx,5610.1
p430
sg13
g428
sg14
VI just got back from the world's mystery convention, Bouchercon. As usual, we overestimated what we would be able to cover in real time, but here are some of my favorite happenings at the convention. One of the biggest highlights for me was the visit from the head writer of TNT's Major Crimes, James
p431
sg16
(dp432
g21
g428
sg23
g430
sg24
V2017-03-25T22:01:00
p433
sg26
g429
sg27
g431
sg28
Vhttps://api.cognitive.microsoft.com/api/v5/#WebPages.38
p434
ssg30
g434
sg31
Nsg32
g431
sbag1
(g2
g3
Ntp435
Rp436
(dp437
g7
VFrom the Pits: 2012 - tammykaehler.blogspot.com
p438
sg9
Vtammykaehler.blogspot.com/2012
p439
sg11
Vhttp://www.bing.com/cr?IG=CC21914EC1964AE0BB0C11625D61298F&CID=0DD792CC569764903AC69893577E652F&rd=1&h=pgGSUv6s6RmhjF7jhpB06nsOuo_ruzTdaApIx8PR4gk&v=1&r=http%3a%2f%2ftammykaehler.blogspot.com%2f2012%2f&p=DevEx,5621.1
p440
sg13
g438
sg14
VLast Thursday through Sunday was the annual Bouchercon World Mystery Convention in Cleveland, Ohio, and I was in attendance. Here's the view from my hotel room.
p441
sg16
(dp442
g21
g438
sg23
g440
sg24
V2017-04-03T08:59:00
p443
sg26
g439
sg27
g441
sg28
Vhttps://api.cognitive.microsoft.com/api/v5/#WebPages.39
p444
ssg30
g444
sg31
Nsg32
g441
sbag1
(g2
g3
Ntp445
Rp446
(dp447
g7
VBouchercon World Mystery Convention 2008: Crab Cakes & Murder in Charm City
p448
sg9
Vlj.libraryjournal.com/2008/12/events/bouchercon-world-mystery...
p449
sg11
Vhttp://www.bing.com/cr?IG=CC21914EC1964AE0BB0C11625D61298F&CID=0DD792CC569764903AC69893577E652F&rd=1&h=q8yu7WGpwkmPdb3ztIXBYKhGOqZJi-mmRhNzwoCPIo4&v=1&r=http%3a%2f%2flj.libraryjournal.com%2f2008%2f12%2fevents%2fbouchercon-world-mystery-convention-2008-crab-cakes-murder-in-charm-city%2f&p=DevEx,5633.1
p450
sg13
g448
sg14
VMystery authors and fans talk crime at Bouchercon 2008. For four days this past October (9\u201312), Baltimore played host to the 39th annual Bouchercon World Mystery Convention, attracting some 1,442 writers, editors, publishers, agents, and fans.
p451
sg16
(dp452
g21
g448
sg23
g450
sg24
V2017-02-23T00:09:00
p453
sg26
g449
sg27
g451
sg28
Vhttps://api.cognitive.microsoft.com/api/v5/#WebPages.40
p454
ssg30
g454
sg31
Nsg32
g451
sbag1
(g2
g3
Ntp455
Rp456
(dp457
g7
VBouchercon 2011 - My Building Blog
p458
sg9
Vwww.bouchercon2011.com
p459
sg11
Vhttp://www.bing.com/cr?IG=CC21914EC1964AE0BB0C11625D61298F&CID=0DD792CC569764903AC69893577E652F&rd=1&h=_pw70bClMK6KRJWcCaHQRxYV1_EPMcdUig7M0CwkW_c&v=1&r=http%3a%2f%2fwww.bouchercon2011.com%2f&p=DevEx,5645.1
p460
sg13
g458
sg14
VYou can find out more about World Green Building Week here. September 16, 2013 September 16, 2013 admin Useful ideas to make sure your swimming pool building is successful. Having a swimming pool built for you is an exciting process that gives you the ability to pick and choose from different features as well as design the overall look of your new pool.
p461
sg16
(dp462
g21
g458
sg23
g460
sg24
V2017-03-18T04:32:00
p463
sg26
g459
sg27
g461
sg28
Vhttps://api.cognitive.microsoft.com/api/v5/#WebPages.41
p464
ssg30
g464
sg31
Nsg32
g461
sbag1
(g2
g3
Ntp465
Rp466
(dp467
g7
VBouchercon: The World Mystery Convention - McFarland R A
p468
sg9
Vwww.mcfarlandbooks.com/2015/10/bouchercon-the-world-mystery-convention
p469
sg11
Vhttp://www.bing.com/cr?IG=CC21914EC1964AE0BB0C11625D61298F&CID=0DD792CC569764903AC69893577E652F&rd=1&h=gvx_TXfPMlNMh_n2iytECBMBxpxsuJW5Wnp22CgMBi0&v=1&r=http%3a%2f%2fwww.mcfarlandbooks.com%2f2015%2f10%2fbouchercon-the-world-mystery-convention%2f&p=DevEx,5658.1
p470
sg13
g468
sg14
VThe World Mystery Convention is a nonprofit, all-volunteer organization which holds an annual convention in honor of Anthony Boucher, the distinguished mystery fiction critic, editor and author. It is the world\u2019s premier event bringing together all parts of the mystery and crime fiction community
p471
sg16
(dp472
g21
g468
sg23
g470
sg24
V2017-03-21T17:25:00
p473
sg26
g469
sg27
g471
sg28
Vhttps://api.cognitive.microsoft.com/api/v5/#WebPages.42
p474
ssg30
g474
sg31
Nsg32
g471
sbag1
(g2
g3
Ntp475
Rp476
(dp477
g7
Vwww.Bouchercon.info - Bouchercon World Mystery Convention
p478
sg9
Vurlm.co/www.bouchercon.info
p479
sg11
Vhttp://www.bing.com/cr?IG=CC21914EC1964AE0BB0C11625D61298F&CID=0DD792CC569764903AC69893577E652F&rd=1&h=_kFdLwvgLDwoL85oPIUpaQyy6whVejVdwW3TSoe5beo&v=1&r=http%3a%2f%2furlm.co%2fwww.bouchercon.info&p=DevEx,5669.1
p480
sg13
g478
sg14
VIn the United States, Bouchercon.info is ranked 1,049,911, with an estimated 927 monthly visitors a month. Click to view other data about this site.
p481
sg16
(dp482
g21
g478
sg23
g480
sg24
V2017-04-02T18:53:00
p483
sg26
g479
sg27
g481
sg28
Vhttps://api.cognitive.microsoft.com/api/v5/#WebPages.43
p484
ssg30
g484
sg31
Nsg32
g481
sbag1
(g2
g3
Ntp485
Rp486
(dp487
g7
VBouchercon World Mystery Conv. - Google Play
p488
sg9
Vhttps://play.google.com/store/apps/details?id=com.guidebook.apps...
p489
sg11
Vhttps://www.bing.com/cr?IG=CC21914EC1964AE0BB0C11625D61298F&CID=0DD792CC569764903AC69893577E652F&rd=1&h=PxWJLjklSJlJLicVkOeLgJ-kSEbjl1OnHj6ERhscEec&v=1&r=https%3a%2f%2fplay.google.com%2fstore%2fapps%2fdetails%3fid%3dcom.guidebook.apps.Bouchercon.android&p=DevEx,5683.1
p490
sg13
g488
sg14
VThe 46th Bouchercon World Mystery Convention (Bcon), taking place in Raleigh, NC, October 8-11, 2015. Bouchercon is where readers, writers, publishers, librarians, editors, agents, booksellers and other lovers of crime fiction gather for a long weekend of education, entertainment, and fun.
p491
sg16
(dp492
g21
g488
sg23
g490
sg24
V2017-03-28T09:11:00
p493
sg26
g489
sg27
g491
sg28
Vhttps://api.cognitive.microsoft.com/api/v5/#WebPages.44
p494
ssg30
g494
sg31
Nsg32
g491
sbag1
(g2
g3
Ntp495
Rp496
(dp497
g7
VBouchercon 2017 - RegOnline
p498
sg9
Vhttps://www.regonline.ca/Register/Checkin.aspx?EventID=1334499
p499
sg11
Vhttps://www.bing.com/cr?IG=CC21914EC1964AE0BB0C11625D61298F&CID=0DD792CC569764903AC69893577E652F&rd=1&h=cSOB_0Wp1pcRwkkIWTcNFZfQxJKeamZT_FERtlXwIUs&v=1&r=https%3a%2f%2fwww.regonline.ca%2fRegister%2fCheckin.aspx%3fEventID%3d1334499&p=DevEx,5697.1
p500
sg13
g498
sg14
VBouchercon World Mystery Convention - Passport to Murder. Toronto Ontario, October 12 - 15, 2017.
p501
sg16
(dp502
g21
g498
sg23
g500
sg24
V2017-03-25T11:48:00
p503
sg26
g499
sg27
g501
sg28
Vhttps://api.cognitive.microsoft.com/api/v5/#WebPages.45
p504
ssg30
g504
sg31
Nsg32
g501
sbag1
(g2
g3
Ntp505
Rp506
(dp507
g7
VBouchercon 2017 (@Bouchercon2017) | Twitter
p508
sg9
Vhttps://twitter.com/bouchercon2017
p509
sg11
Vhttps://www.bing.com/cr?IG=CC21914EC1964AE0BB0C11625D61298F&CID=0DD792CC569764903AC69893577E652F&rd=1&h=Q36_RhM9p-LKjN5ksnvv3J4jL2M7TISlN-iJQsEHexU&v=1&r=https%3a%2f%2ftwitter.com%2fbouchercon2017&p=DevEx,5714.1
p510
sg13
g508
sg14
VThe latest Tweets from Bouchercon 2017 (@Bouchercon2017). In 2017, the World Mystery Convention will be held from October 12-15. http://t.co/iqByuaVAhx. Toronto, ON Canada
p511
sg16
(dp512
g21
g508
sg23
g510
sg24
V2017-03-23T14:10:00
p513
sg26
g509
sg27
g511
sg28
Vhttps://api.cognitive.microsoft.com/api/v5/#WebPages.46
p514
ssg30
g514
sg31
Nsg32
g511
sba.