(lp0
ccopy_reg
_reconstructor
p1
(cpy_ms_cognitive.py_ms_cognitive_search.py_ms_cognitive_web_search
WebResult
p2
c__builtin__
object
p3
Ntp4
Rp5
(dp6
S'name'
p7
VIPLT20.com - Indian Premier League Official Website
p8
sS'display_url'
p9
Vwww.iplt20.com
p10
sS'url'
p11
Vhttp://www.bing.com/cr?IG=8E35ABE09CAB40F48F667004B852B251&CID=17B233300EA86CD22820396F0F416D97&rd=1&h=MXHuQwoG0rNqEAm0AyQemIIUuiJJd_MX7KV0bKklkyY&v=1&r=http%3a%2f%2fwww.iplt20.com%2f&p=DevEx,5124.1
p12
sS'title'
p13
g8
sS'snippet'
p14
VIndian Premier League. Home; News; Schedule; Videos; Stats; Teams; Social; Archive; More. About; Auction; Mobile Products; Venues; Pulse Poll. Pulse Poll. OPEN QUESTIONS. There are currently no open questions. Voting History What's Pulse? ... 2017 VIVO IPL Player Auction - Royal Challengers Bangalore. 34,810 Views 6:39. 2017 VIVO IPL Player Auction - Mumbai Indians. 39,213 Views ...
p15
sS'json'
p16
(dp17
Vabout
p18
(lp19
(dp20
Vname
p21
VIndian Premier League
p22
sa(dp23
g21
V2008 Indian Premier League
p24
sa(dp25
g21
V2010 Indian Premier League
p26
sa(dp27
g21
V2009 Indian Premier League
p28
sa(dp29
g21
V2011 Indian Premier League
p30
sasg21
g8
sVurl
p31
g12
sVdeepLinks
p32
(lp33
(dp34
g31
Vhttp://www.bing.com/cr?IG=8E35ABE09CAB40F48F667004B852B251&CID=17B233300EA86CD22820396F0F416D97&rd=1&h=N4KLtBi4l5A9iVKROErS5S1zBuRAALEIbzNhK4rZ56A&v=1&r=http%3a%2f%2fwww.iplt20.com%2fvideos&p=DevEx,5114.1
p35
sg21
VVideos
p36
sa(dp37
g31
Vhttp://www.bing.com/cr?IG=8E35ABE09CAB40F48F667004B852B251&CID=17B233300EA86CD22820396F0F416D97&rd=1&h=FzOCu6njFXOlqh0GhZr-mXJdsczNcIWlTOZpj1cnb8E&v=1&r=http%3a%2f%2fwww.iplt20.com%2fstats%2f&p=DevEx,5115.1
p38
sg21
VStats
p39
sa(dp40
g31
Vhttp://www.bing.com/cr?IG=8E35ABE09CAB40F48F667004B852B251&CID=17B233300EA86CD22820396F0F416D97&rd=1&h=iVd_I4b2HgBNmMItcw4_yfAG3BA4YB6WeExwN0052aQ&v=1&r=http%3a%2f%2ffantasy.iplt20.com%2fIPL%2fen%2f1%2fclienthome.do&p=DevEx,5116.1
p41
sg21
VFantasy
p42
sa(dp43
g31
Vhttp://www.bing.com/cr?IG=8E35ABE09CAB40F48F667004B852B251&CID=17B233300EA86CD22820396F0F416D97&rd=1&h=OYSGb0rjFSXcA0zm48cQNmkXvuUq_w1_EUEqXFawpWk&v=1&r=http%3a%2f%2fwww.iplt20.com%2fschedule&p=DevEx,5117.1
p44
sg21
VSchedule
p45
sa(dp46
g31
Vhttp://www.bing.com/cr?IG=8E35ABE09CAB40F48F667004B852B251&CID=17B233300EA86CD22820396F0F416D97&rd=1&h=NyytCFyNSzbU2LQxj1qnBIvyERxcxxx8_Qwft75L8jE&v=1&r=http%3a%2f%2fwww.iplt20.com%2fresults&p=DevEx,5118.1
p47
sg21
VResults
p48
sa(dp49
g31
Vhttp://www.bing.com/cr?IG=8E35ABE09CAB40F48F667004B852B251&CID=17B233300EA86CD22820396F0F416D97&rd=1&h=EbzeU0ywZGkgJ4uLFNM4IBwybCnNW109Rt8GIbJoByA&v=1&r=http%3a%2f%2fwww.iplt20.com%2fnews%2f&p=DevEx,5119.1
p50
sg21
VNews
p51
sasVdateLastCrawled
p52
V2017-03-31T13:41:00
p53
sVdisplayUrl
p54
g10
sVsnippet
p55
g15
sVid
p56
Vhttps://api.cognitive.microsoft.com/api/v5/#WebPages.0
p57
ssS'id'
p58
g57
sS'deep_links'
p59
g33
sS'description'
p60
g15
sbag1
(g2
g3
Ntp61
Rp62
(dp63
g7
VIPL 2017 Schedule, Matches, Dates, Teams, Auction, venues
p64
sg9
Vipl2017.co.in
p65
sg11
Vhttp://www.bing.com/cr?IG=8E35ABE09CAB40F48F667004B852B251&CID=17B233300EA86CD22820396F0F416D97&rd=1&h=o95xISCnwKA9AT63JFMt3FYAdjN8JUmGknVFCLJGuhM&v=1&r=http%3a%2f%2fipl2017.co.in%2f&p=DevEx,5137.1
p66
sg13
g64
sg14
VGet IPL 2017 Schedule, time table all the details like matches, starting dates, venues, all team squads, auction of Indian Premier League T20 season 10
p67
sg16
(dp68
g21
g64
sg31
g66
sg52
V2017-04-02T19:06:00
p69
sg54
g65
sg55
g67
sg56
Vhttps://api.cognitive.microsoft.com/api/v5/#WebPages.1
p70
ssg58
g70
sg59
Nsg60
g67
sbag1
(g2
g3
Ntp71
Rp72
(dp73
g7
VIPL 2017: Ten years, six champions - Times of India
p74
sg9
Vtimesofindia.indiatimes.com/sports/cricket/ipl/top-stories/ipl...
p75
sg11
Vhttp://www.bing.com/cr?IG=8E35ABE09CAB40F48F667004B852B251&CID=17B233300EA86CD22820396F0F416D97&rd=1&h=qvclPAQZSynbFPMwrmzgYTdEBM0w84D0SZOgs_2YDAI&v=1&r=http%3a%2f%2ftimesofindia.indiatimes.com%2fsports%2fcricket%2fipl%2ftop-stories%2fipl-2017-ten-years-six-champions%2farticleshow%2f57983888.cms&p=DevEx,5154.1
p76
sg13
g74
sg14
VNEW DELHI: As IPL kicks off this week, here's a look back at the six teams to have gotten their hands on the championship in its ten-year existence. 2008: Shane Warne leads Rajasthan Royals to shock inaugural title Australian spin wizard Shane Warne proved that he is the best captain that Australia
p77
sg16
(dp78
g21
g74
sg31
g76
sg52
V2017-04-03T18:09:00
p79
sg54
g75
sg55
g77
sg56
Vhttps://api.cognitive.microsoft.com/api/v5/#WebPages.2
p80
ssg58
g80
sg59
Nsg60
g77
sbag1
(g2
g3
Ntp81
Rp82
(dp83
g7
VLatest IPL 2017 News and Score | IPL 2017 Schedule, Teams, Points Table ...
p84
sg9
Vhttps://www.sportskeeda.com/go/ipl
p85
sg11
Vhttps://www.bing.com/cr?IG=8E35ABE09CAB40F48F667004B852B251&CID=17B233300EA86CD22820396F0F416D97&rd=1&h=a4oGynIIX7OVw8Bh3oBt3Yn7yANXa8r05ahc2RzjBA0&v=1&r=https%3a%2f%2fwww.sportskeeda.com%2fgo%2fipl&p=DevEx,5166.1
p86
sg13
g84
sg14
VGet all the IPL 2017 Live Scores, news, schedule, points table & match result. Also get latest & updates, highlights, photos & videos of Indian Premier League 2017.
p87
sg16
(dp88
g21
g84
sg31
g86
sg52
V2017-04-03T20:05:00
p89
sg54
g85
sg55
g87
sg56
Vhttps://api.cognitive.microsoft.com/api/v5/#WebPages.3
p90
ssg58
g90
sg59
Nsg60
g87
sbag1
(g2
g3
Ntp91
Rp92
(dp93
g7
VIPL 2017 - Indian Premier League T20 - Cricketwa.com
p94
sg9
Vwww.cricketwa.com/10742/series/ipl-2017-schedule-fixtures.aspx
p95
sg11
Vhttp://www.bing.com/cr?IG=8E35ABE09CAB40F48F667004B852B251&CID=17B233300EA86CD22820396F0F416D97&rd=1&h=07X5G0aaf0RZSPu23-VwzRF5sPGZymJqg-17QSp8fy8&v=1&r=http%3a%2f%2fwww.cricketwa.com%2f10742%2fseries%2fipl-2017-schedule-fixtures.aspx&p=DevEx,5180.1
p96
sg13
g94
sg14
VThe most famous T20 league is back once again with yet another season. In the year 2017 the Indian Premiere League will be turning 10. This year the IPL turns even better as new players are introduced to the 8 teams making it bigger and better.
p97
sg16
(dp98
g21
g94
sg31
g96
sg52
V2017-03-30T23:17:00
p99
sg54
g95
sg55
g97
sg56
Vhttps://api.cognitive.microsoft.com/api/v5/#WebPages.4
p100
ssg58
g100
sg59
Nsg60
g97
sbag1
(g2
g3
Ntp101
Rp102
(dp103
g7
VIpl 2017 News | Latest Ipl 2017 Updates | Ipl 2017 Articles ... - india.com
p104
sg9
Vwww.india.com/topic/ipl-2017
p105
sg11
Vhttp://www.bing.com/cr?IG=8E35ABE09CAB40F48F667004B852B251&CID=17B233300EA86CD22820396F0F416D97&rd=1&h=4yFiqpUlQXWgQXW6DUnuR1d3Au8JJlasIoDI-kNIx5Y&v=1&r=http%3a%2f%2fwww.india.com%2ftopic%2fipl-2017%2f&p=DevEx,5193.1
p106
sg13
g104
sg14
VGet latest & exclusive Ipl 2017 news updates & stories. Explore photos & videos on Ipl 2017. Also get news from India and world including business, cricket, technology, sports, politics, entertainment & live news coverage online at India.com
p107
sg16
(dp108
g21
g104
sg31
g106
sg52
V2017-04-03T16:08:00
p109
sg54
g105
sg55
g107
sg56
Vhttps://api.cognitive.microsoft.com/api/v5/#WebPages.5
p110
ssg58
g110
sg59
Nsg60
g107
sbag1
(g2
g3
Ntp111
Rp112
(dp113
g7
VIPL 2017 | IPL 2017 Schedule Time Table PDF Players And Team Details
p114
sg9
Vipl2017.net
p115
sg11
Vhttp://www.bing.com/cr?IG=8E35ABE09CAB40F48F667004B852B251&CID=17B233300EA86CD22820396F0F416D97&rd=1&h=BHgan8F7QVf5oq8Cmz9cdRH_HApJF2rI2R_e6GPq0i8&v=1&r=http%3a%2f%2fipl2017.net%2f&p=DevEx,5205.1
p116
sg13
g114
sg14
VIPL 2017 Schedule time table with IPL 2017 PDF download , Vivo ipl 2017 live score , ipl 2017 teams , Ipl 10 players
p117
sg16
(dp118
g21
g114
sg31
g116
sg52
V2017-03-31T18:01:00
p119
sg54
g115
sg55
g117
sg56
Vhttps://api.cognitive.microsoft.com/api/v5/#WebPages.6
p120
ssg58
g120
sg59
Nsg60
g117
sbag1
(g2
g3
Ntp121
Rp122
(dp123
g7
VIPL 2017 Schedule, Points Table, IPL 10 Live Streaming, Score, Teams ...
p124
sg9
Vwww.ipl-2015.co.in
p125
sg11
Vhttp://www.bing.com/cr?IG=8E35ABE09CAB40F48F667004B852B251&CID=17B233300EA86CD22820396F0F416D97&rd=1&h=sX5jp_deJgyyuXT9yU97_sVRaLcUV-ToULzHyhagQAI&v=1&r=http%3a%2f%2fwww.ipl-2015.co.in%2f&p=DevEx,5218.1
p126
sg13
g124
sg14
VIPL 2017 Schedule, VIVO IPL 10 Auctions Live Streaming, Teams, Matches, Tickets, Points Table, Predictions, Live Score, IPL 2017 live stream online.
p127
sg16
(dp128
g21
g124
sg31
g126
sg52
V2017-04-03T14:57:00
p129
sg54
g125
sg55
g127
sg56
Vhttps://api.cognitive.microsoft.com/api/v5/#WebPages.7
p130
ssg58
g130
sg59
Nsg60
g127
sbag1
(g2
g3
Ntp131
Rp132
(dp133
g7
VIPL Schedule 2017 Time Table, Match Fixtures, Date, Teams & Players List
p134
sg9
Viplschedule2017.org.in
p135
sg11
Vhttp://www.bing.com/cr?IG=8E35ABE09CAB40F48F667004B852B251&CID=17B233300EA86CD22820396F0F416D97&rd=1&h=JMDwqaLxV3u3dHk6kGY662-Jx8Jn_thXuARFhEJK2fo&v=1&r=http%3a%2f%2fiplschedule2017.org.in%2f&p=DevEx,5230.1
p136
sg13
g134
sg14
VIPL Schedule 2017 PDF \u2013 Time Table, Starting Date, Teams & Squads \u2013 Indian Premier League is now in its tenth year and we are expecting to have the best IPL of all years.
p137
sg16
(dp138
g21
g134
sg31
g136
sg52
V2017-03-28T18:22:00
p139
sg54
g135
sg55
g137
sg56
Vhttps://api.cognitive.microsoft.com/api/v5/#WebPages.8
p140
ssg58
g140
sg59
Nsg60
g137
sbag1
(g2
g3
Ntp141
Rp142
(dp143
g7
VIPL 2017 Schedule, Points Table, IPL 10 Live Streaming Opening Ceremony ...
p144
sg9
Vwww.ipl-2017.com
p145
sg11
Vhttp://www.bing.com/cr?IG=8E35ABE09CAB40F48F667004B852B251&CID=17B233300EA86CD22820396F0F416D97&rd=1&h=TJyyAjj4PBiPhYYl6iuupD2-MH_93bCb5JKIJsI5Fx4&v=1&r=http%3a%2f%2fwww.ipl-2017.com%2f&p=DevEx,5242.1
p146
sg13
g144
sg14
VIPL 2017 Schedule, Points Table, Live Streaming, Opening Ceremony, VIVO IPL Live Score 2017, Time Table, Teams Standings, Games, Predictions, Results.
p147
sg16
(dp148
g21
g144
sg31
g146
sg52
V2017-04-06T19:07:00
p149
sg54
g145
sg55
g147
sg56
Vhttps://api.cognitive.microsoft.com/api/v5/#WebPages.9
p150
ssg58
g150
sg59
Nsg60
g147
sbag1
(g2
g3
Ntp151
Rp152
(dp153
g7
VIPL 2017: Virender Sehwag emerges as Kings XI Punjab coach? Read more
p154
sg9
Vwww.ibtimes.co.in/ipl-2017-virender-sehwag-back-read-know-more-709676
p155
sg11
Vhttp://www.bing.com/cr?IG=8E35ABE09CAB40F48F667004B852B251&CID=17B233300EA86CD22820396F0F416D97&rd=1&h=XURcaY8GxEDTsIF1TImiao3mABe1KtXPwR7PvLtcEbU&v=1&r=http%3a%2f%2fwww.ibtimes.co.in%2fipl-2017-virender-sehwag-back-read-know-more-709676&p=DevEx,5254.1
p156
sg13
g154
sg14
VIPL 2017: Virender Sehwag emerges as Kings XI Punjab coach? Read more Apparently, Twitter superstar Sehwag is replacing Sanjay Bangar as the new coach of the Preity Zinta co-owned team.
p157
sg16
(dp158
g21
g154
sg31
g156
sg52
V2017-04-03T04:38:00
p159
sg54
g155
sg55
g157
sg56
Vhttps://api.cognitive.microsoft.com/api/v5/#WebPages.10
p160
ssg58
g160
sg59
Nsg60
g157
sbag1
(g2
g3
Ntp161
Rp162
(dp163
g7
V2017 Indian Premier League - Wikipedia
p164
sg9
Vhttps://en.wikipedia.org/wiki/2017_Indian_Premier_League
p165
sg11
Vhttps://www.bing.com/cr?IG=8E35ABE09CAB40F48F667004B852B251&CID=17B233300EA86CD22820396F0F416D97&rd=1&h=qLPY3LY9KcSVBxA3UhjT52xZkM-ixjTO7raRHANw3kM&v=1&r=https%3a%2f%2fen.wikipedia.org%2fwiki%2f2017_Indian_Premier_League&p=DevEx,5272.1
p166
sg13
g164
sg14
VThe 2017 season of the Indian Premier League, also known as IPL 10, will be the tenth season of the IPL, a professional Twenty20 cricket league established by the Board of Control for Cricket in India (BCCI) in 2007.
p167
sg16
(dp168
VsnippetAttribution
p169
(dp170
VlicenseNotice
p171
VText under CC-BY-SA license
p172
sVlicense
p173
(dp174
g31
Vhttp://www.bing.com/cr?IG=8E35ABE09CAB40F48F667004B852B251&CID=17B233300EA86CD22820396F0F416D97&rd=1&h=tJYnHtBaEymlKo_fRl0wo_ZHu4dAaCwVMH_BvcixOgM&v=1&r=http%3a%2f%2fcreativecommons.org%2flicenses%2fby-sa%2f3.0%2f&p=DevEx,6561.1
p175
sg21
VCC-BY-SA
p176
sssg21
g164
sg31
g166
sg52
V2017-04-03T10:28:00
p177
sg54
g165
sg55
g167
sg56
Vhttps://api.cognitive.microsoft.com/api/v5/#WebPages.11
p178
ssg58
g178
sg59
Nsg60
g167
sbag1
(g2
g3
Ntp179
Rp180
(dp181
g7
VIPL 2017: Sunrisers Hyderabad beat Royal Challengers Bangalore by 35 runs
p182
sg9
Vtimesofindia.indiatimes.com/sports/cricket/ipl/live-blog/ipl-2017...
p183
sg11
Vhttp://www.bing.com/cr?IG=8E35ABE09CAB40F48F667004B852B251&CID=17B233300EA86CD22820396F0F416D97&rd=1&h=PMCWgNoUCZk5LojiwiRdn2TgyQqGhje66sXP2LGVCLc&v=1&r=http%3a%2f%2ftimesofindia.indiatimes.com%2fsports%2fcricket%2fipl%2flive-blog%2fipl-2017-opening-ceremony-live-updates%2fliveblog%2f58027095.cms&p=DevEx,5287.1
p184
sg13
g182
sg14
VTendulkar: Cricket has gone to those countries who doesn't follow cricket. It is all because of IPL. Good cricket should be played in right spirit.
p185
sg16
(dp186
g21
g182
sg31
g184
sg52
V2017-04-06T05:24:00
p187
sg54
g183
sg55
g185
sg56
Vhttps://api.cognitive.microsoft.com/api/v5/#WebPages.12
p188
ssg58
g188
sg59
Nsg60
g185
sbag1
(g2
g3
Ntp189
Rp190
(dp191
g7
VIPL Auction 2017: IPL 10 Player Auction - Updated Teams & Players ...
p192
sg9
Vhttps://sports.ndtv.com/indian-premier-league-2017/auction
p193
sg11
Vhttps://www.bing.com/cr?IG=8E35ABE09CAB40F48F667004B852B251&CID=17B233300EA86CD22820396F0F416D97&rd=1&h=RvPEIWQXKZioWQT1yZZ5mQWnf0WX0BXi-8GQii_5-Bg&v=1&r=https%3a%2f%2fsports.ndtv.com%2findian-premier-league-2017%2fauction&p=DevEx,5301.1
p194
sg13
g192
sg14
VIPL 2017 Get all the information on IPL teams, players and updated squads after the auction. List of players sold and unsold in IPL 2017.
p195
sg16
(dp196
g21
g192
sg31
g194
sg52
V2017-04-03T00:07:00
p197
sg54
g193
sg55
g195
sg56
Vhttps://api.cognitive.microsoft.com/api/v5/#WebPages.13
p198
ssg58
g198
sg59
Nsg60
g195
sbag1
(g2
g3
Ntp199
Rp200
(dp201
g7
VIPL 2017 Opening Ceremony Live stream
p202
sg9
Vhttps://www.livestreamonpc.com/ipl2017openingceremony/index.html
p203
sg11
Vhttps://www.bing.com/cr?IG=8E35ABE09CAB40F48F667004B852B251&CID=17B233300EA86CD22820396F0F416D97&rd=1&h=rXiXKwQdEarCojhPvQrmnG-waZdk4izdv9bEfw07tKk&v=1&r=https%3a%2f%2fwww.livestreamonpc.com%2fipl2017openingceremony%2findex.html&p=DevEx,5312.1
p204
sg13
g202
sg14
VWatch IPL 2017 Opening Ceremony Live stream Online. Enjoy Indian Premier Opening Ceremony Live streaming coverage Fullvideo Time, TV channel, how to watch live stream online
p205
sg16
(dp206
g21
g202
sg31
g204
sg52
V2017-04-05T11:24:00
p207
sg54
g203
sg55
g205
sg56
Vhttps://api.cognitive.microsoft.com/api/v5/#WebPages.14
p208
ssg58
g208
sg59
Nsg60
g205
sbag1
(g2
g3
Ntp209
Rp210
(dp211
g7
VHome - IPL 2017 - News | Schedules | Players | Scores | Photos & Videos
p212
sg9
Vwww.2017iplt20.com
p213
sg11
Vhttp://www.bing.com/cr?IG=8E35ABE09CAB40F48F667004B852B251&CID=17B233300EA86CD22820396F0F416D97&rd=1&h=UPrHVeyDNp1T-NAzrJWJ01Ahhw8MRex6ut83WhB5HiE&v=1&r=http%3a%2f%2fwww.2017iplt20.com%2f&p=DevEx,5324.1
p214
sg13
g212
sg14
VWelcome to the Home of IPL 2017 - News | Schedules | Players | Scores | Photos & Videos. The best updates of IPL 2017 on the go.
p215
sg16
(dp216
g21
g212
sg31
g214
sg52
V2017-04-03T20:25:00
p217
sg54
g213
sg55
g215
sg56
Vhttps://api.cognitive.microsoft.com/api/v5/#WebPages.15
p218
ssg58
g218
sg59
Nsg60
g215
sbag1
(g2
g3
Ntp219
Rp220
(dp221
g7
VIPL 2017 Schedule, Timetable, Points tables, Auction
p222
sg9
Vipl2017scheduletimetable.com
p223
sg11
Vhttp://www.bing.com/cr?IG=8E35ABE09CAB40F48F667004B852B251&CID=17B233300EA86CD22820396F0F416D97&rd=1&h=r7PV-XQaGhuegv9zss_2XvcWBRUwHuXCCfj6O8xoVZ4&v=1&r=http%3a%2f%2fipl2017scheduletimetable.com%2f&p=DevEx,5336.1
p224
sg13
g222
sg14
VIPL 2017 Schedule, IPL 2017 Auction, Ipl 2017 points tables, Ipl 2017 schedule, Live streaming, score cards, teams, highlights, ipl 2017 list, final match
p225
sg16
(dp226
g21
g222
sg31
g224
sg52
V2017-03-28T20:54:00
p227
sg54
g223
sg55
g225
sg56
Vhttps://api.cognitive.microsoft.com/api/v5/#WebPages.16
p228
ssg58
g228
sg59
Nsg60
g225
sbag1
(g2
g3
Ntp229
Rp230
(dp231
g7
VIPL 2017, Match 1: Sunrisers Hyderabad vs Royal Challengers Bangalore ...
p232
sg9
Vzeenews.india.com/cricket/ipl/ipl-2017-match-1-srh-vs-rcb-live...
p233
sg11
Vhttp://www.bing.com/cr?IG=8E35ABE09CAB40F48F667004B852B251&CID=17B233300EA86CD22820396F0F416D97&rd=1&h=XHBpTAzp28g2Y1jlHPkLnszxoX6RHvzUzZQcdPN2YYg&v=1&r=http%3a%2f%2fzeenews.india.com%2fcricket%2fipl%2fipl-2017-match-1-srh-vs-rcb-live-score-live-streaming-tv-listing-time-date-venue-1993211.html&p=DevEx,5354.1
p234
sg13
g232
sg14
VDefending champions Sunrisers Hyderabad produced a clinical performance to beat last year's finalists Royal Challengers Bangalore by 35 runs in the first match of IPL 2017 at at Rajiv Gandhi International Stadium, Uppal.
p235
sg16
(dp236
g21
g232
sg31
g234
sg52
V2017-04-05T18:57:00
p237
sg54
g233
sg55
g235
sg56
Vhttps://api.cognitive.microsoft.com/api/v5/#WebPages.17
p238
ssg58
g238
sg59
Nsg60
g235
sbag1
(g2
g3
Ntp239
Rp240
(dp241
g7
VIPL 2017: Full schedule | Cricbuzz.com
p242
sg9
Vwww.cricbuzz.com/cricket-news/92304/ipl-2017-full-schedule-indian...
p243
sg11
Vhttp://www.bing.com/cr?IG=8E35ABE09CAB40F48F667004B852B251&CID=17B233300EA86CD22820396F0F416D97&rd=1&h=JMr8fj-QTtJqraQs0kyT5kKQsHvHGIfSNH8pos_DARs&v=1&r=http%3a%2f%2fwww.cricbuzz.com%2fcricket-news%2f92304%2fipl-2017-full-schedule-indian-premier-league-2017&p=DevEx,5367.1
p244
sg13
g242
sg14
VThe schedule for the tenth edition of the Indian Premier League has been revealed by the Board of Control for Cricket in India. The tournament, featuring eight teams, will kick start on the 5th of April and end on the 21st of May.
p245
sg16
(dp246
g21
g242
sg31
g244
sg52
V2017-04-02T00:04:00
p247
sg54
g243
sg55
g245
sg56
Vhttps://api.cognitive.microsoft.com/api/v5/#WebPages.18
p248
ssg58
g248
sg59
Nsg60
g245
sbag1
(g2
g3
Ntp249
Rp250
(dp251
g7
VIPL 2017 Schedule Time Table, IPL 2017 Teams ,Fixtures, News, Live Score
p252
sg9
Vwww.vivoipl2017schedule.com
p253
sg11
Vhttp://www.bing.com/cr?IG=8E35ABE09CAB40F48F667004B852B251&CID=17B233300EA86CD22820396F0F416D97&rd=1&h=4_amtXMpd47SuHk24YxuQZiySQNQcciA62ZDQrgnBWY&v=1&r=http%3a%2f%2fwww.vivoipl2017schedule.com%2f&p=DevEx,5381.1
p254
sg13
g252
sg14
VIPL 2017 Schedule Time Table , Vivo IPL 2017 Schedule Fixtures Download , Vivo IPL 2017 Teams Squad and Ipl 10 Retained Players , IPL 2017 News , IPL 2017 Live Score
p255
sg16
(dp256
g21
g252
sg31
g254
sg52
V2017-04-02T11:41:00
p257
sg54
g253
sg55
g255
sg56
Vhttps://api.cognitive.microsoft.com/api/v5/#WebPages.19
p258
ssg58
g258
sg59
Nsg60
g255
sbag1
(g2
g3
Ntp259
Rp260
(dp261
g7
VIPL 2017 | Schedule | Timetable | Fixtures | Sify.com
p262
sg9
Vwww.sify.com/sports/cricket/ipl2017/schedule
p263
sg11
Vhttp://www.bing.com/cr?IG=8E35ABE09CAB40F48F667004B852B251&CID=17B233300EA86CD22820396F0F416D97&rd=1&h=QSggXZIk846aJ9p11E3Rtc6hgzbOOkGjw3wIOCbOtZc&v=1&r=http%3a%2f%2fwww.sify.com%2fsports%2fcricket%2fipl2017%2fschedule%2f&p=DevEx,5393.1
p264
sg13
g262
sg14
V2017 IPL, April 5 to May 21, Live Scores, Schedule, Ball by ball update, Points Table, Live commentary, News, Squads, Results, Standings, IPL 2017, IPL 10
p265
sg16
(dp266
g21
g262
sg31
g264
sg52
V2017-03-26T12:09:00
p267
sg54
g263
sg55
g265
sg56
Vhttps://api.cognitive.microsoft.com/api/v5/#WebPages.20
p268
ssg58
g268
sg59
Nsg60
g265
sbag1
(g2
g3
Ntp269
Rp270
(dp271
g7
VIPL 2017: Around 40 players, including Pietersen, Morgan, Holder ...
p272
sg9
Vwww.ibtimes.co.in/ipl-2017-around-40-players-including-pietersen...
p273
sg11
Vhttp://www.bing.com/cr?IG=8E35ABE09CAB40F48F667004B852B251&CID=17B233300EA86CD22820396F0F416D97&rd=1&h=HaSO0e5UkJwp1Z1FUJn0cEWbjwR-w4Oh5XAq1s0T0G0&v=1&r=http%3a%2f%2fwww.ibtimes.co.in%2fipl-2017-around-40-players-including-pietersen-morgan-holder-released-by-franchises-708784&p=DevEx,5406.1
p274
sg13
g272
sg14
VIPL 2017: Around 40 players, including Pietersen, Morgan, Holder, released by franchises The IPL 2017 auction is going to be an interesting affair in Bengaluru.
p275
sg16
(dp276
g21
g272
sg31
g274
sg52
V2017-04-04T01:41:00
p277
sg54
g273
sg55
g275
sg56
Vhttps://api.cognitive.microsoft.com/api/v5/#WebPages.21
p278
ssg58
g278
sg59
Nsg60
g275
sbag1
(g2
g3
Ntp279
Rp280
(dp281
g7
VIPL auction, 2017 - List of players up for grabs | Cricbuzz.com
p282
sg9
Vwww.cricbuzz.com/...league-auction-2017-list-of-players-up-for-grabs
p283
sg11
Vhttp://www.bing.com/cr?IG=8E35ABE09CAB40F48F667004B852B251&CID=17B233300EA86CD22820396F0F416D97&rd=1&h=gIUG4nsJ4wtFtnPLOXXg_E0deQFTKJq_nH5AknFZUD8&v=1&r=http%3a%2f%2fwww.cricbuzz.com%2fcricket-news%2f92278%2findian-premier-league-auction-2017-list-of-players-up-for-grabs&p=DevEx,5418.1
p284
sg13
g282
sg14
VAs many as 351 players will go under the hammer during the Indian Premier League (IPL) 2017 auction that will take place in Bengaluru on February 20.
p285
sg16
(dp286
g21
g282
sg31
g284
sg52
V2017-04-03T23:24:00
p287
sg54
g283
sg55
g285
sg56
Vhttps://api.cognitive.microsoft.com/api/v5/#WebPages.22
p288
ssg58
g288
sg59
Nsg60
g285
sbag1
(g2
g3
Ntp289
Rp290
(dp291
g7
VIPL 2017 Schedule, Live Cricket Match, Score, IPL Teams - Live-Cricket ...
p292
sg9
Vhttps://www.live-cricket.co.in
p293
sg11
Vhttps://www.bing.com/cr?IG=8E35ABE09CAB40F48F667004B852B251&CID=17B233300EA86CD22820396F0F416D97&rd=1&h=fCd3OzCfibwkjygSrjtqQ73ElhWT5TElBlJAsN5SHuM&v=1&r=https%3a%2f%2fwww.live-cricket.co.in%2f&p=DevEx,5431.1
p294
sg13
g292
sg14
VThe 2017 season of the Indian Premier League, abbreviated as VIVO IPL 10, will be the tenth season of the IPL, a professional Twenty20 cricket Live Match .
p295
sg16
(dp296
g21
g292
sg31
g294
sg52
V2017-04-04T01:27:00
p297
sg54
g293
sg55
g295
sg56
Vhttps://api.cognitive.microsoft.com/api/v5/#WebPages.23
p298
ssg58
g298
sg59
Nsg60
g295
sbag1
(g2
g3
Ntp299
Rp300
(dp301
g7
VIPL 2017 Schedule, Matches, Time Table, Auction, Venue, Fixtures IPL 10
p302
sg9
Vipl2017.co.in/schedule/ipl-2017-fixture-time-table-dates-venues.html
p303
sg11
Vhttp://www.bing.com/cr?IG=8E35ABE09CAB40F48F667004B852B251&CID=17B233300EA86CD22820396F0F416D97&rd=1&h=ns3HShPy6C2pM7C600s6seyIeKHSfwJGsUt1HEEyOSo&v=1&r=http%3a%2f%2fipl2017.co.in%2fschedule%2fipl-2017-fixture-time-table-dates-venues.html&p=DevEx,5444.1
p304
sg13
g302
sg14
VHere is IPL 2017 schedule with all Fixtures, Venues, Dates and the time table. All about Indian Premier League T20, Dates are announced of IPL 10
p305
sg16
(dp306
g21
g302
sg31
g304
sg52
V2017-04-02T22:47:00
p307
sg54
g303
sg55
g305
sg56
Vhttps://api.cognitive.microsoft.com/api/v5/#WebPages.24
p308
ssg58
g308
sg59
Nsg60
g305
sbag1
(g2
g3
Ntp309
Rp310
(dp311
g7
VLive streaming, IPL 2017, T20, Sunrisers Hyderabad vs Gujarat Lions ...
p312
sg9
Vwww.hindustantimes.com/sports/live-streaming-ipl-2017-t20-sun...
p313
sg11
Vhttp://www.bing.com/cr?IG=8E35ABE09CAB40F48F667004B852B251&CID=17B233300EA86CD22820396F0F416D97&rd=1&h=SOLWVXQSAcUmatPJ5p0CGNzCCKXsDiD-ipgAtU620b4&v=1&r=http%3a%2f%2fwww.hindustantimes.com%2fsports%2flive-streaming-ipl-2017-t20-sunrisers-hyderabad-vs-gujarat-lions-where-to-see-live-cricket%2fstory-sZJEw27WcV4iQUCRY66FPP.html&p=DevEx,5458.1
p314
sg13
g312
sg14
VLive streaming and live cricket score of the Indian Premier League 2017 T20 match between Sunrisers Hyderabad and Gujarat Lions in Hyderabad today will be available online.
p315
sg16
(dp316
g21
g312
sg31
g314
sg52
V2017-04-09T06:47:00
p317
sg54
g313
sg55
g315
sg56
Vhttps://api.cognitive.microsoft.com/api/v5/#WebPages.25
p318
ssg58
g318
sg59
Nsg60
g315
sbag1
(g2
g3
Ntp319
Rp320
(dp321
g7
VIPL 2017 Schedule: Get Full Fixture, Dates, Match Timings and Venue ...
p322
sg9
Vwww.india.com/sports/ipl-2017-schedule-get-full-fixture-dates...
p323
sg11
Vhttp://www.bing.com/cr?IG=8E35ABE09CAB40F48F667004B852B251&CID=17B233300EA86CD22820396F0F416D97&rd=1&h=b8U1YqNhYKFiZXEe_1gb0WAmg45XCU4ugTP2rx1qaUs&v=1&r=http%3a%2f%2fwww.india.com%2fsports%2fipl-2017-schedule-get-full-fixture-dates-match-timings-and-venue-details-of-indian-premier-league-10-1844447%2f&p=DevEx,5471.1
p324
sg13
g322
sg14
VIPL 10 Schedule: Sunrisers Hyderabad take on Royal Challengers Bangalore in the opening game of IPL 10 in Hyderabad - IPL 2017 Schedule: Get Full Fixture, Dates, Match Timings and Venue Details of Indian Premier League 10
p325
sg16
(dp326
g21
g322
sg31
g324
sg52
V2017-04-01T05:41:00
p327
sg54
g323
sg55
g325
sg56
Vhttps://api.cognitive.microsoft.com/api/v5/#WebPages.26
p328
ssg58
g328
sg59
Nsg60
g325
sbag1
(g2
g3
Ntp329
Rp330
(dp331
g7
VIPL News - IPLT20.com
p332
sg9
Vwww.iplt20.com/news
p333
sg11
Vhttp://www.bing.com/cr?IG=8E35ABE09CAB40F48F667004B852B251&CID=17B233300EA86CD22820396F0F416D97&rd=1&h=EbzeU0ywZGkgJ4uLFNM4IBwybCnNW109Rt8GIbJoByA&v=1&r=http%3a%2f%2fwww.iplt20.com%2fnews%2f&p=DevEx,5484.1
p334
sg13
g332
sg14
VVIVO IPL Fan Parks get bigger and better . The VIVO IPL 2017 is just around the corner and cricket fans this season will have more reason to cheer.
p335
sg16
(dp336
g21
g332
sg31
g334
sg52
V2017-04-02T14:46:00
p337
sg54
g333
sg55
g335
sg56
Vhttps://api.cognitive.microsoft.com/api/v5/#WebPages.27
p338
ssg58
g338
sg59
Nsg60
g335
sbag1
(g2
g3
Ntp339
Rp340
(dp341
g7
VIPL 2017 Auction: 5 Players To Watch Out For \u2013 NDTV Sports
p342
sg9
Vhttps://sports.ndtv.com/indian-premier-league-2017/ipl-2017...
p343
sg11
Vhttps://www.bing.com/cr?IG=8E35ABE09CAB40F48F667004B852B251&CID=17B233300EA86CD22820396F0F416D97&rd=1&h=0sivsG5eN3qa0tdOw_nSASyhG1ka74x1CyZVG3xAvKE&v=1&r=https%3a%2f%2fsports.ndtv.com%2findian-premier-league-2017%2fipl-2017-auction-5-players-to-watch-out-for-1660825&p=DevEx,5499.1
p344
sg13
g342
sg14
VThe IPL 2017 player auction will take place in Bengaluru on Monday, February 20, with 351 players set to go under the hammer.
p345
sg16
(dp346
g21
g342
sg31
g344
sg52
V2017-04-02T08:10:00
p347
sg54
g343
sg55
g345
sg56
Vhttps://api.cognitive.microsoft.com/api/v5/#WebPages.28
p348
ssg58
g348
sg59
Nsg60
g345
sbag1
(g2
g3
Ntp349
Rp350
(dp351
g7
VIPL 2017 Schedule, Fixtures, IPL 2017 Auction News, IPL 10 Teams
p352
sg9
Vwww.ipl9schedule.com
p353
sg11
Vhttp://www.bing.com/cr?IG=8E35ABE09CAB40F48F667004B852B251&CID=17B233300EA86CD22820396F0F416D97&rd=1&h=MXV1S0Ih-pR7VN6b61uFNfJ9MV0oKmuuGPBwNaeWo9c&v=1&r=http%3a%2f%2fwww.ipl9schedule.com%2f&p=DevEx,5512.1
p354
sg13
g352
sg14
VIPL 2017 Schedule, IPL 2017 Team, Fixtures, IPL Auction 2017, IPL-Indian Premier League 2017 T20 News, IPL 10 Teams, IPL 10 Schedule, VIVO IPL 10 Players name, VIVO IPL 2017 Breaking News, IPL 2017, IPL 2017 Auction, ... MS Dhoni had led Chennai Super Kings for eight years, in IPL 2016 he leading Risning... MI - Mumbai Indians IPL 2017 Team Squads, Retained and Released Players List.
p355
sg16
(dp356
g21
g352
sg31
g354
sg52
V2017-04-02T04:58:00
p357
sg54
g353
sg55
g355
sg56
Vhttps://api.cognitive.microsoft.com/api/v5/#WebPages.29
p358
ssg58
g358
sg59
Nsg60
g355
sbag1
(g2
g3
Ntp359
Rp360
(dp361
g7
VIPL 2017: the return of BCCI\u2019s prodigal child - The Hindu
p362
sg9
Vwww.thehindu.com/opinion/op-ed/ipl-2017-the-return-of-bccis...
p363
sg11
Vhttp://www.bing.com/cr?IG=8E35ABE09CAB40F48F667004B852B251&CID=17B233300EA86CD22820396F0F416D97&rd=1&h=xffK0hqXmJdPPruvZh_NdZbVAHvW77XXlfD1MKHZv-4&v=1&r=http%3a%2f%2fwww.thehindu.com%2fopinion%2fop-ed%2fipl-2017-the-return-of-bccis-prodigal-child%2farticle17545352.ece&p=DevEx,5526.1
p364
sg13
g362
sg14
VEverything relating to cricket in India has been uncertain this past year. It seems as if there is some conflict at every corner. Lost in the epic tussle between the Board of Control for Cricket in India (BCCI) and the Supreme Court is the prodigal child which caused all this conflict, the Indian Premier League (IPL), set to return for its tenth season on April 5.
p365
sg16
(dp366
g21
g362
sg31
g364
sg52
V2017-03-22T19:47:00
p367
sg54
g363
sg55
g365
sg56
Vhttps://api.cognitive.microsoft.com/api/v5/#WebPages.30
p368
ssg58
g368
sg59
Nsg60
g365
sbag1
(g2
g3
Ntp369
Rp370
(dp371
g7
VIPL 2017: Sunrisers Hyderabad all-time XI - cricket.yahoo.com
p372
sg9
Vhttps://cricket.yahoo.com/news/ipl-2017-sunrisers-hyderabad-time...
p373
sg11
Vhttps://www.bing.com/cr?IG=8E35ABE09CAB40F48F667004B852B251&CID=17B233300EA86CD22820396F0F416D97&rd=1&h=5JFNCKHqeeOhBVod1LidAkbun_Leenw_sFV-IC2sVqE&v=1&r=https%3a%2f%2fcricket.yahoo.com%2fnews%2fipl-2017-sunrisers-hyderabad-time-114100425.html&p=DevEx,5539.1
p374
sg13
g372
sg14
VThe Sunrisers Hyderabad surprised quite a few people by winning the title in IPL 2016 ahead of more fancied teams like the Royal Challengers Bangalore, the Mumbai Indians and the Kolkata Knight Riders.
p375
sg16
(dp376
g21
g372
sg31
g374
sg52
V2017-04-02T11:45:00
p377
sg54
g373
sg55
g375
sg56
Vhttps://api.cognitive.microsoft.com/api/v5/#WebPages.31
p378
ssg58
g378
sg59
Nsg60
g375
sbag1
(g2
g3
Ntp379
Rp380
(dp381
g7
VIPL 2017: \u0916\u093f\u0932\u093e\u0921\u093c\u093f\u092f\u094b\u0902 \u0915\u0940 \u0928\u0940\u0932\u093e\u092e\u0940 - Navbharat Times
p382
sg9
Vnavbharattimes.indiatimes.com/ipl-players-auction-2017-live...
p383
sg11
Vhttp://www.bing.com/cr?IG=8E35ABE09CAB40F48F667004B852B251&CID=17B233300EA86CD22820396F0F416D97&rd=1&h=BnQyJorfHF6uXPF-130tRrD0LnzeRW4ALOlpTdCiQkk&v=1&r=http%3a%2f%2fnavbharattimes.indiatimes.com%2fipl-players-auction-2017-live-updates-sports%2fliveblog%2f57233893.cms&p=DevEx,5551.1
p384
sg13
g382
sg14
VLIVE IPL Auction 2017 in Hindi: Get the Live coverage of IPL auction from The Ritz-Carlton, Bengaluru. IPL 10 Auction has started from 9:30 AM and continue till 6:00 PM IST.
p385
sg16
(dp386
g21
g382
sg31
g384
sg52
V2017-03-26T23:44:00
p387
sg54
g383
sg55
g385
sg56
Vhttps://api.cognitive.microsoft.com/api/v5/#WebPages.32
p388
ssg58
g388
sg59
Nsg60
g385
sbag1
(g2
g3
Ntp389
Rp390
(dp391
g7
VIPL 2017 Schedule, Time table,match list, fixtures
p392
sg9
Viplschedule.in
p393
sg11
Vhttp://www.bing.com/cr?IG=8E35ABE09CAB40F48F667004B852B251&CID=17B233300EA86CD22820396F0F416D97&rd=1&h=O9BdJp-lQzBd8jsCWj8hn67_4bAXsfcP1th1k7vgSWY&v=1&r=http%3a%2f%2fiplschedule.in%2f&p=DevEx,5564.1
p394
sg13
g392
sg14
VIPL 2017 Schedule is the most expected event of the year. Hardly 20 days to go for IPL 2017 Time table and matches to start.. IPL 2016 had a decent run and Rio Olympics has failed to beat the potential of cricket.
p395
sg16
(dp396
g21
g392
sg31
g394
sg52
V2017-04-04T05:20:00
p397
sg54
g393
sg55
g395
sg56
Vhttps://api.cognitive.microsoft.com/api/v5/#WebPages.33
p398
ssg58
g398
sg59
Nsg60
g395
sbag1
(g2
g3
Ntp399
Rp400
(dp401
g7
VIPL 2017 SRH vs GL: Sunrisers Hyderabad (SRH) probable playing 11 ...
p402
sg9
Vhttps://cricket.yahoo.com/news/ipl-2017-srh-vs-gl-231700381.html
p403
sg11
Vhttps://www.bing.com/cr?IG=8E35ABE09CAB40F48F667004B852B251&CID=17B233300EA86CD22820396F0F416D97&rd=1&h=17nA0CKJBMg3vzy550VSQBRcbKYWtDH7zcXjbG3sLm4&v=1&r=https%3a%2f%2fcricket.yahoo.com%2fnews%2fipl-2017-srh-vs-gl-231700381.html&p=DevEx,5578.1
p404
sg13
g402
sg14
VIt was a case of deja vu in the opening game of IPL 2017 as Sunrisers Hyderabad beat Royal Challengers Bangalore in what was a repeat of last year\u2019s IPL final.
p405
sg16
(dp406
g21
g402
sg31
g404
sg52
V2017-04-09T00:55:00
p407
sg54
g403
sg55
g405
sg56
Vhttps://api.cognitive.microsoft.com/api/v5/#WebPages.34
p408
ssg58
g408
sg59
Nsg60
g405
sbag1
(g2
g3
Ntp409
Rp410
(dp411
g7
VIPL 2017 | Indian Premier League Season 10 | Live Score | News | Fixtures
p412
sg9
Vipl.cricket.com.pk
p413
sg11
Vhttp://www.bing.com/cr?IG=8E35ABE09CAB40F48F667004B852B251&CID=17B233300EA86CD22820396F0F416D97&rd=1&h=AqqwG3rhthvlwljSGkqnV76YhGgG6blIn79vN1Ecln4&v=1&r=http%3a%2f%2fipl.cricket.com.pk%2f&p=DevEx,5592.1
p414
sg13
g412
sg14
VIPL 2017: Full Coverage of IPL 10 the Indian Premier League Season 10 in 2017 with live scores, latest news, pictures, videos, fixtures, results, and ball by ball commentary.
p415
sg16
(dp416
g21
g412
sg31
g414
sg52
V2017-03-29T22:39:00
p417
sg54
g413
sg55
g415
sg56
Vhttps://api.cognitive.microsoft.com/api/v5/#WebPages.35
p418
ssg58
g418
sg59
Nsg60
g415
sbag1
(g2
g3
Ntp419
Rp420
(dp421
g7
VIPL 2017IPL 2017 Schedule - Winners - Match Predictions - Live ...
p422
sg9
Vwww.ipl2017schedule.com
p423
sg11
Vhttp://www.bing.com/cr?IG=8E35ABE09CAB40F48F667004B852B251&CID=17B233300EA86CD22820396F0F416D97&rd=1&h=tNg9sl5UPcgDG8TRNG-pGIhKuN4BDLvTROfIzNaZyNw&v=1&r=http%3a%2f%2fwww.ipl2017schedule.com%2f&p=DevEx,5604.1
p424
sg13
g422
sg14
VIPL 2017 Schedule - Winners - Match Predictions - Live Streaming - IPL 2017 Auction - IPL 2017 Live Cricket Scores.
p425
sg16
(dp426
g21
g422
sg31
g424
sg52
V2017-04-03T13:17:00
p427
sg54
g423
sg55
g425
sg56
Vhttps://api.cognitive.microsoft.com/api/v5/#WebPages.36
p428
ssg58
g428
sg59
Nsg60
g425
sbag1
(g2
g3
Ntp429
Rp430
(dp431
g7
VIPL 2017 auction: This is how the bidding war for Ben Stokes unfolded ...
p432
sg9
Vindiatoday.intoday.in/story/indian-premier-league-2017-auction...
p433
sg11
Vhttp://www.bing.com/cr?IG=8E35ABE09CAB40F48F667004B852B251&CID=17B233300EA86CD22820396F0F416D97&rd=1&h=WE03bA5j477Jk5cw-abcZ0GG8x3h-v_hIWyGWE8026Q&v=1&r=http%3a%2f%2findiatoday.intoday.in%2fstory%2findian-premier-league-2017-auction-live-updates%2f1%2f886848.html&p=DevEx,5620.1
p434
sg13
g432
sg14
VIPL 2017 auction: This is how the bidding war for Ben Stokes unfolded. Ben Stokes became the costliest foreign player in the history of Indian Premier League auctions while star Indian players Ishant Sharma, Irfan Pathan and Cheteshwar Pujara remained unsold. Rohan Sen rohan.sen@intoday.com. February 20, 2017 | UPDATED 10:04 IST . A + A - The 10th Indian Premier League auction was an action-packed affair.
p435
sg16
(dp436
g21
g432
sg31
g434
sg52
V2017-03-31T13:32:00
p437
sg54
g433
sg55
g435
sg56
Vhttps://api.cognitive.microsoft.com/api/v5/#WebPages.37
p438
ssg58
g438
sg59
Nsg60
g435
sbag1
(g2
g3
Ntp439
Rp440
(dp441
g7
VIPL 2017, SRH vs RCB - highlights: Yuvraj Singh heroics take defending ...
p442
sg9
Vwww.hindustantimes.com/ipl-2017/sunrisers-hyderabad-vs-royal...
p443
sg11
Vhttp://www.bing.com/cr?IG=8E35ABE09CAB40F48F667004B852B251&CID=17B233300EA86CD22820396F0F416D97&rd=1&h=nLqrvgllhWWQRSdW77gaoXsFJYOv20lQYWtCKrzwAsY&v=1&r=http%3a%2f%2fwww.hindustantimes.com%2fipl-2017%2fsunrisers-hyderabad-vs-royal-challengers-bangalore-ipl-2017-t20-live-cricket-score%2fstory-w3DUtatN9oBBeSy3KSx62J.html&p=DevEx,5634.1
p444
sg13
g442
sg14
VIPL 2017, SRH vs RCB - highlights: Yuvraj Singh heroics take defending champs to 35-run win . Sunrisers Hyderabad (SRH) got off to a dream start in the Indian Premier League (IPL) 2017 as they defeated Royal Challengers Bangalore (RCB) by 35 runs.
p445
sg16
(dp446
g21
g442
sg31
g444
sg52
V2017-04-05T19:51:00
p447
sg54
g443
sg55
g445
sg56
Vhttps://api.cognitive.microsoft.com/api/v5/#WebPages.38
p448
ssg58
g448
sg59
Nsg60
g445
sbag1
(g2
g3
Ntp449
Rp450
(dp451
g7
VIPL 2017 Schedule, Fixture, Dates, Match Timings and Venue Details of ...
p452
sg9
Vindianexpress.com/article/sports/cricket/ipl-2017-complete...
p453
sg11
Vhttp://www.bing.com/cr?IG=8E35ABE09CAB40F48F667004B852B251&CID=17B233300EA86CD22820396F0F416D97&rd=1&h=pPc49rd51zPCnMVzCIYPgw2S3pyLO-9OhfeSKjyd0qE&v=1&r=http%3a%2f%2findianexpress.com%2farticle%2fsports%2fcricket%2fipl-2017-complete-fixtures-schedule-and-time-in-ist-defending-champs-srh-to-play-rcb-in-opener-4526792%2f&p=DevEx,5651.1
p454
sg13
g452
sg14
VIPL 2017 Schedule, Fixture, Dates, Match Timings and Venue Details of Indian Premier League 10 IPL 2017: The opening fixture is going to be played between Sunrisers Hyderabad and Royal Challengers Bangalore.
p455
sg16
(dp456
g21
g452
sg31
g454
sg52
V2017-04-03T15:37:00
p457
sg54
g453
sg55
g455
sg56
Vhttps://api.cognitive.microsoft.com/api/v5/#WebPages.39
p458
ssg58
g458
sg59
Nsg60
g455
sbag1
(g2
g3
Ntp459
Rp460
(dp461
g7
VIPL 10 Schedule 2017, Time Table, Date, Timing, City
p462
sg9
Vsports.mapsofindia.com/cricket/ipl/schedule.html
p463
sg11
Vhttp://www.bing.com/cr?IG=8E35ABE09CAB40F48F667004B852B251&CID=17B233300EA86CD22820396F0F416D97&rd=1&h=EVE-0vDW7F656JQOs8rDm2VaYPDClzCGQPXO9F-2jiE&v=1&r=http%3a%2f%2fsports.mapsofindia.com%2fcricket%2fipl%2fschedule.html&p=DevEx,5666.1
p464
sg13
g462
sg14
VGet IPL 2017 match schedule, T20 fixtures list, play off, time table for season 10 with dates, timings, teams, and venue details.
p465
sg16
(dp466
g21
g462
sg31
g464
sg52
V2017-03-28T23:28:00
p467
sg54
g463
sg55
g465
sg56
Vhttps://api.cognitive.microsoft.com/api/v5/#WebPages.40
p468
ssg58
g468
sg59
Nsg60
g465
sbag1
(g2
g3
Ntp469
Rp470
(dp471
g7
VIPL 2017 Tickets Online Booking: Buy IPL 10 Tickets
p472
sg9
Vwww.ipltickets.net
p473
sg11
Vhttp://www.bing.com/cr?IG=8E35ABE09CAB40F48F667004B852B251&CID=17B233300EA86CD22820396F0F416D97&rd=1&h=ogvcOqjNZkNiAxUeGSCCCuTxcnK_vDchmDxvcLMLCjY&v=1&r=http%3a%2f%2fwww.ipltickets.net%2f&p=DevEx,5680.1
p474
sg13
g472
sg14
VBook ipl tickets 2017 online here for Indian premier league matches. Online tickets booking for ipl 10 including price/rate for each team is here.
p475
sg16
(dp476
g21
g472
sg31
g474
sg52
V2017-04-02T10:57:00
p477
sg54
g473
sg55
g475
sg56
Vhttps://api.cognitive.microsoft.com/api/v5/#WebPages.41
p478
ssg58
g478
sg59
Nsg60
g475
sbag1
(g2
g3
Ntp479
Rp480
(dp481
g7
VIPL 2017 Auction: Top 5 Indian players to watch out for | Zee News
p482
sg9
Vzeenews.india.com/sports/slideshow/ipl-2017-auction-top-5-indian...
p483
sg11
Vhttp://www.bing.com/cr?IG=8E35ABE09CAB40F48F667004B852B251&CID=17B233300EA86CD22820396F0F416D97&rd=1&h=dUv4Z7Koe4l26lqpAW2feyDC8X1rl-DQPkIergxAXZM&v=1&r=http%3a%2f%2fzeenews.india.com%2fsports%2fslideshow%2fipl-2017-auction-top-5-indian-players-to-watch-out-for_1978953&p=DevEx,5694.1
p484
sg13
g482
sg14
VAhead of the 2017 IPL season, 352 players which include 227 Indian and 125 overseas players will go under hammer for auction in Bengaluru.
p485
sg16
(dp486
g21
g482
sg31
g484
sg52
V2017-03-31T00:49:00
p487
sg54
g483
sg55
g485
sg56
Vhttps://api.cognitive.microsoft.com/api/v5/#WebPages.42
p488
ssg58
g488
sg59
Nsg60
g485
sbag1
(g2
g3
Ntp489
Rp490
(dp491
g7
VIpl 2017 Matches Schedule
p492
sg9
Vipl2017scheduled.com
p493
sg11
Vhttp://www.bing.com/cr?IG=8E35ABE09CAB40F48F667004B852B251&CID=17B233300EA86CD22820396F0F416D97&rd=1&h=q7iKMFzVlDyPpr-GsCvIliA6_OMXlWWaziB2OfKffJM&v=1&r=http%3a%2f%2fipl2017scheduled.com%2f&p=DevEx,5706.1
p494
sg13
g492
sg14
VIpl 2017 Schedule Matches, Ipl Fixtures 2017, Ipl Players and time table,Ipl 2017 team Detail, Live score Ipl 2017, Ipl Season 10.
p495
sg16
(dp496
g21
g492
sg31
g494
sg52
V2017-04-02T16:12:00
p497
sg54
g493
sg55
g495
sg56
Vhttps://api.cognitive.microsoft.com/api/v5/#WebPages.43
p498
ssg58
g498
sg59
Nsg60
g495
sbag1
(g2
g3
Ntp499
Rp500
(dp501
g7
VIPL 2017 Auction: 5 Players To Watch Out For - msn.com
p502
sg9
Vwww.msn.com/en-in/sports/cricket/ipl-2017-auction-5-players-to...
p503
sg11
Vhttp://www.bing.com/cr?IG=8E35ABE09CAB40F48F667004B852B251&CID=17B233300EA86CD22820396F0F416D97&rd=1&h=NaR5L_UkqG_aZ0YNmYusOy0JKSO5hz4I3iTG9WnHy2c&v=1&r=http%3a%2f%2fwww.msn.com%2fen-in%2fsports%2fcricket%2fipl-2017-auction-5-players-to-watch-out-for%2far-AAn61qL&p=DevEx,5718.1
p504
sg13
g502
sg14
VThe IPL 2017 player auction will take place in Bengaluru on Monday, February 20, with 351 players set to go under the hammer.
p505
sg16
(dp506
g21
g502
sg31
g504
sg52
V2017-04-01T17:21:00
p507
sg54
g503
sg55
g505
sg56
Vhttps://api.cognitive.microsoft.com/api/v5/#WebPages.44
p508
ssg58
g508
sg59
Nsg60
g505
sbag1
(g2
g3
Ntp509
Rp510
(dp511
g7
VVivo IPL 2017 : Schedule | Points Table | IPL 2017 Live Auction
p512
sg9
Vwww.ipl-2017.in
p513
sg11
Vhttp://www.bing.com/cr?IG=8E35ABE09CAB40F48F667004B852B251&CID=17B233300EA86CD22820396F0F416D97&rd=1&h=Z4sa36CM6raGuHTxpLL-hwreFY5ZkN81LpKeJpWMPPc&v=1&r=http%3a%2f%2fwww.ipl-2017.in%2f&p=DevEx,5730.1
p514
sg13
g512
sg14
VVivo IPL 2017 : Time table,Schedule,IPL 10 Table Points,Live Match Score,IPL T20 2017 Live Streaming,Fixtures,Players list,Teams,Squad,Today Match
p515
sg16
(dp516
g21
g512
sg31
g514
sg52
V2017-04-03T03:31:00
p517
sg54
g513
sg55
g515
sg56
Vhttps://api.cognitive.microsoft.com/api/v5/#WebPages.45
p518
ssg58
g518
sg59
Nsg60
g515
sbag1
(g2
g3
Ntp519
Rp520
(dp521
g7
VIPL, vivo IPL 2017,vivo IPL 2017 schedule ,IPL 2017,IPL session 10, IPL ...
p522
sg9
Vwww.iplmatchscore.in
p523
sg11
Vhttp://www.bing.com/cr?IG=8E35ABE09CAB40F48F667004B852B251&CID=17B233300EA86CD22820396F0F416D97&rd=1&h=YyjM3EjkXDAt48ihiPkIztYeOnMnTuB_f00GhdHHiVE&v=1&r=http%3a%2f%2fwww.iplmatchscore.in%2f&p=DevEx,5741.1
p524
sg13
g522
sg14
VVivo IPL 2017 Schedule time table with IPL 2017 PDF download , Vivo ipl 2017 live score , vivo ipl 2017 teams , Ipl 10 players
p525
sg16
(dp526
g21
g522
sg31
g524
sg52
V2017-03-28T18:49:00
p527
sg54
g523
sg55
g525
sg56
Vhttps://api.cognitive.microsoft.com/api/v5/#WebPages.46
p528
ssg58
g528
sg59
Nsg60
g525
sbag1
(g2
g3
Ntp529
Rp530
(dp531
g7
VIPL 2017 | IPL 2017 Start Date, IPL 2017 Auction Schedule, Time Table ...
p532
sg9
Vhttps://www.bestmobilephones.co.in/blog/vivo-ipl-2017-auction-date...
p533
sg11
Vhttps://www.bing.com/cr?IG=8E35ABE09CAB40F48F667004B852B251&CID=17B233300EA86CD22820396F0F416D97&rd=1&h=i5CYMUXUd0Wx2Z2jeRJLzVrgvgj8tmjh9-KpwRAeFew&v=1&r=https%3a%2f%2fwww.bestmobilephones.co.in%2fblog%2fvivo-ipl-2017-auction-date-schedule-teams-tickets&p=DevEx,5754.1
p534
sg13
g532
sg14
VIPL 2017, Get All The latest news and updates of VIVO IPl 2017, Upcoming matches list, Start Date and Tickets, Schedules of Team, Watch IPL Live Streaming 2017 Online Here.
p535
sg16
(dp536
g21
g532
sg31
g534
sg52
V2017-04-03T19:35:00
p537
sg54
g533
sg55
g535
sg56
Vhttps://api.cognitive.microsoft.com/api/v5/#WebPages.47
p538
ssg58
g538
sg59
Nsg60
g535
sbag1
(g2
g3
Ntp539
Rp540
(dp541
g7
VIPL 10 Schedule 2017 PDF \u2013 Time Table, Starting Date, Teams & Squads ...
p542
sg9
Vwww.vivoiplt20live.co.in
p543
sg11
Vhttp://www.bing.com/cr?IG=8E35ABE09CAB40F48F667004B852B251&CID=17B233300EA86CD22820396F0F416D97&rd=1&h=z_Ix9KHxsWqLLiAWU_h5K1oflbBfYzCElLvqNDMkeVE&v=1&r=http%3a%2f%2fwww.vivoiplt20live.co.in%2f&p=DevEx,5767.1
p544
sg13
g542
sg14
VIPL 2017 Auctions Date Time , Vanue And Rules. IPL 2017 Auctions date are now delayed by the IPL governing Council . As the auction date was confirmed to take place on 4th February now will delayed to 20th February .
p545
sg16
(dp546
g21
g542
sg31
g544
sg52
V2017-04-02T10:34:00
p547
sg54
g543
sg55
g545
sg56
Vhttps://api.cognitive.microsoft.com/api/v5/#WebPages.48
p548
ssg58
g548
sg59
Nsg60
g545
sbag1
(g2
g3
Ntp549
Rp550
(dp551
g7
VIPL 2017 Live Match Online | Live Cricket Match, Score, IPL Teams
p552
sg9
Vhttps://www.ipl2017.tv
p553
sg11
Vhttps://www.bing.com/cr?IG=8E35ABE09CAB40F48F667004B852B251&CID=17B233300EA86CD22820396F0F416D97&rd=1&h=xvIO8zApQMQZC1kbZfY_zAMQ9YZ_zxJUOdQ9m6O2Z6o&v=1&r=https%3a%2f%2fwww.ipl2017.tv%2f&p=DevEx,5779.1
p554
sg13
g552
sg14
VGet all your IPL 2017 action live on ipl2017.tv and get the latested updates , news and reviews, IPL 2017 fun facts.
p555
sg16
(dp556
g21
g552
sg31
g554
sg52
V2017-03-30T01:49:00
p557
sg54
g553
sg55
g555
sg56
Vhttps://api.cognitive.microsoft.com/api/v5/#WebPages.49
p558
ssg58
g558
sg59
Nsg60
g555
sba.