(lp0
ccopy_reg
_reconstructor
p1
(cpy_ms_cognitive.py_ms_cognitive_search.py_ms_cognitive_web_search
WebResult
p2
c__builtin__
object
p3
Ntp4
Rp5
(dp6
S'name'
p7
VISIS Claims Egypt Church Bombings That Killed 38: Report
p8
sS'display_url'
p9
Vwww.ndtv.com/world-news/isis-claims-egypt-church-bombings-that...
p10
sS'url'
p11
Vhttp://www.bing.com/cr?IG=7960AA5EA86242F7922DF9BA118B7917&CID=3E5905DA369E61132EFB0F85377760D7&rd=1&h=UDlLqfduyYsNtcD7drpHYioXchkHXGK44Ih0WOk56DQ&v=1&r=http%3a%2f%2fwww.ndtv.com%2fworld-news%2fisis-claims-egypt-church-bombings-that-killed-36-report-1679223&p=DevEx,5116.1
p12
sS'title'
p13
g8
sS'snippet'
p14
VThe ISIS claimed responsibility for bombing two Egyptian churches on Sunday in the deadliest attacks on the country's Christian minority in recent memory.
p15
sS'json'
p16
(dp17
Vname
p18
g8
sVurl
p19
g12
sVdateLastCrawled
p20
V2017-04-09T17:10:00
p21
sVdisplayUrl
p22
g10
sVsnippet
p23
g15
sVid
p24
Vhttps://api.cognitive.microsoft.com/api/v5/#WebPages.0
p25
ssS'id'
p26
g25
sS'deep_links'
p27
NsS'description'
p28
g15
sbag1
(g2
g3
Ntp29
Rp30
(dp31
g7
VEgyptian Christians flee after ISIS attacks - CNN.com
p32
sg9
Vwww.cnn.com/2017/03/08/africa/egypt-isis-attacks/index.html
p33
sg11
Vhttp://www.bing.com/cr?IG=7960AA5EA86242F7922DF9BA118B7917&CID=3E5905DA369E61132EFB0F85377760D7&rd=1&h=YY5wTKW45_P5phLKg3fpclR-M2uqjYtbP-xXEw4MA-A&v=1&r=http%3a%2f%2fwww.cnn.com%2f2017%2f03%2f08%2fafrica%2fegypt-isis-attacks%2findex.html&p=DevEx,5131.1
p34
sg13
g32
sg14
VStory highlights. Egypt's Christians are the largest minority group in the country; Al Wilayat Sinai, a local affiliate of ISIS, appears to be targeting Christian families in the North Sinai peninsula
p35
sg16
(dp36
g18
g32
sg19
g34
sg20
V2017-04-02T16:19:00
p37
sg22
g33
sg23
g35
sg24
Vhttps://api.cognitive.microsoft.com/api/v5/#WebPages.1
p38
ssg26
g38
sg27
Nsg28
g35
sbag1
(g2
g3
Ntp39
Rp40
(dp41
g7
VISIS claims responsibility for 2 bombings in Egypt that ...
p42
sg9
Vabcnews.go.com/International/isis-claiming-responsibility-church...
p43
sg11
Vhttp://www.bing.com/cr?IG=7960AA5EA86242F7922DF9BA118B7917&CID=3E5905DA369E61132EFB0F85377760D7&rd=1&h=X4HyRq2p5zk2gVowDXtmDG5zDbxAywOZHCUtVB6hRsU&v=1&r=http%3a%2f%2fabcnews.go.com%2fInternational%2fisis-claiming-responsibility-church-bombings-egypt-killed-dozens%2fstory%3fid%3d46686110&p=DevEx,5143.1
p44
sg13
g42
sg14
VISIS has claimed responsibility for two attacks on churches in Egypt that were packed for Palm Sunday services, according to its news agency. The attacks follow warnings by the terrorist group that it would escalate attacks on Egypt's Christians, who the CIA estimate make up roughly 10 percent of the country's population.
p45
sg16
(dp46
g18
g42
sg19
g44
sg20
V2017-04-09T19:17:00
p47
sg22
g43
sg23
g45
sg24
Vhttps://api.cognitive.microsoft.com/api/v5/#WebPages.2
p48
ssg26
g48
sg27
Nsg28
g45
sbag1
(g2
g3
Ntp49
Rp50
(dp51
g7
VISIS claims responsibility for church attacks in Egypt | Latest News ...
p52
sg9
Vwww.dnaindia.com/world/report-isis-claims-responsibility-for...
p53
sg11
Vhttp://www.bing.com/cr?IG=7960AA5EA86242F7922DF9BA118B7917&CID=3E5905DA369E61132EFB0F85377760D7&rd=1&h=jbTd5j3ed_iHFS1ywB3LIk_xu31KB7sEtx4CXmQWQOE&v=1&r=http%3a%2f%2fwww.dnaindia.com%2fworld%2freport-isis-claims-responsibility-for-church-attacks-in-egypt-2391812&p=DevEx,5156.1
p54
sg13
g52
sg14
VISIS claims responsibility for church attacks in Egypt - The Islamic State of Iraq and Syria (ISIS) has reportedly claimed responsibility for the two attacks on churches in Egypt that left at least 37 people dead and injured several others.
p55
sg16
(dp56
g18
g52
sg19
g54
sg20
V2017-04-09T15:30:00
p57
sg22
g53
sg23
g55
sg24
Vhttps://api.cognitive.microsoft.com/api/v5/#WebPages.3
p58
ssg26
g58
sg27
Nsg28
g55
sbag1
(g2
g3
Ntp59
Rp60
(dp61
g7
VISIS claims responsibility for church attacks in Egypt - newsR
p62
sg9
Vwww.newsr.in/n/World/75e71jws6/ISIS-claims-responsibility-for...
p63
sg11
Vhttp://www.bing.com/cr?IG=7960AA5EA86242F7922DF9BA118B7917&CID=3E5905DA369E61132EFB0F85377760D7&rd=1&h=NnZ484ESZb5C9N53rcuDixKgOu-ixzr5YQRCm5cZO_8&v=1&r=http%3a%2f%2fwww.newsr.in%2fn%2fWorld%2f75e71jws6%2fISIS-claims-responsibility-for-church-attacks-in-Egypt.htm&p=DevEx,5170.1
p64
sg13
g62
sg14
VThe attack comes a week before Coptic Easter and in the same month that Pope Francis is scheduled to visit Egypt. Isis have claimed responsibility for two bomb attacks on Coptic Christian churches in Egypt which have killed at least 36 people. At least 37 people were killed and more than 100 injured
p65
sg16
(dp66
g18
g62
sg19
g64
sg20
V2017-04-09T18:19:00
p67
sg22
g63
sg23
g65
sg24
Vhttps://api.cognitive.microsoft.com/api/v5/#WebPages.4
p68
ssg26
g68
sg27
Nsg28
g65
sbag1
(g2
g3
Ntp69
Rp70
(dp71
g7
VISIS claims responsibility for church attacks in Egypt
p72
sg9
Vwww.sify.com/news/isis-claims-responsibility-for-church-attacks-in...
p73
sg11
Vhttp://www.bing.com/cr?IG=7960AA5EA86242F7922DF9BA118B7917&CID=3E5905DA369E61132EFB0F85377760D7&rd=1&h=Lorrl2RUrfb7EAl-N7apyFsOxeC6MGcKuutK_ZGNXp4&v=1&r=http%3a%2f%2fwww.sify.com%2fnews%2fisis-claims-responsibility-for-church-attacks-in-egypt-news-international-rejverdbgchjg.html&p=DevEx,5185.1
p74
sg13
g72
sg14
V[Egypt], Apr. 9 (ANI): The Islamic State of Iraq and Syria (ISIS) has reportedly claimed responsibility for the two attacks on churches in Egypt that left at least 37 people dead and injured several others.
p75
sg16
(dp76
g18
g72
sg19
g74
sg20
V2017-04-09T17:52:00
p77
sg22
g73
sg23
g75
sg24
Vhttps://api.cognitive.microsoft.com/api/v5/#WebPages.5
p78
ssg26
g78
sg27
Nsg28
g75
sbag1
(g2
g3
Ntp79
Rp80
(dp81
g7
VISIS vows more attacks on Egypt\u2019s Christians
p82
sg9
Vwww.catholicherald.co.uk/.../02/20/isis-vows-more-attacks-on-egypts...
p83
sg11
Vhttp://www.bing.com/cr?IG=7960AA5EA86242F7922DF9BA118B7917&CID=3E5905DA369E61132EFB0F85377760D7&rd=1&h=YUoELeP631iVYN5PFaZcQ8e3KyTvbTCQ8AKz6DT60zI&v=1&r=http%3a%2f%2fwww.catholicherald.co.uk%2fnews%2f2017%2f02%2f20%2fisis-vows-more-attacks-on-egypts-christians%2f&p=DevEx,5198.1
p84
sg13
g82
sg14
VIn a video released on Monday, an ISIS affiliate group said Christians are their 'favourite prey' An ISIS affiliate group in Egypt released a video on Monday showing the suicide bomber who killed nearly 30 people when he attacked a packed church in December and vowing more attacks on the country\u2019s Christian.
p85
sg16
(dp86
g18
g82
sg19
g84
sg20
V2017-03-31T12:28:00
p87
sg22
g83
sg23
g85
sg24
Vhttps://api.cognitive.microsoft.com/api/v5/#WebPages.6
p88
ssg26
g88
sg27
Nsg28
g85
sbag1
(g2
g3
Ntp89
Rp90
(dp91
g7
VEgypt hotel attack: 'Isis flag raised' by men who ... - The Independent
p92
sg9
Vwww.independent.co.uk/news/world/africa/egypt-hotel-attack-isis...
p93
sg11
Vhttp://www.bing.com/cr?IG=7960AA5EA86242F7922DF9BA118B7917&CID=3E5905DA369E61132EFB0F85377760D7&rd=1&h=0seDuvHXohjex4lEpZlJrAZDDzftf5ULIfsysB9Yu7k&v=1&r=http%3a%2f%2fwww.independent.co.uk%2fnews%2fworld%2fafrica%2fegypt-hotel-attack-isis-flag-raised-by-men-who-stabbed-tourists-at-bella-vista-hotel-in-hurghada-a6803626.html&p=DevEx,5218.1
p94
sg13
g92
sg14
VThree tourists stabbed by suspected Isis terrorists at an Egyptian beach resort are being treated for their injuries after the second attack on hotels in the country in two days. Two Austrians and a Swede were wounded by two men who stormed the beachside Bella Vista hotel in Hurghada on Friday night and raised an Isis flag, according to unconfirmed witness reports.
p95
sg16
(dp96
g18
g92
sg19
g94
sg20
V2017-03-23T18:58:00
p97
sg22
g93
sg23
g95
sg24
Vhttps://api.cognitive.microsoft.com/api/v5/#WebPages.7
p98
ssg26
g98
sg27
Nsg28
g95
sbag1
(g2
g3
Ntp99
Rp100
(dp101
g7
VEgypt: ISIS attack kills 15 security personnel in north Sinai
p102
sg9
Vindianexpress.com/article/world/world-news/egypt-isis-attack-kills...
p103
sg11
Vhttp://www.bing.com/cr?IG=7960AA5EA86242F7922DF9BA118B7917&CID=3E5905DA369E61132EFB0F85377760D7&rd=1&h=iRl4gdfaoDUM6mEKza84UJrjbZWmUYelLfRQRJdpNhc&v=1&r=http%3a%2f%2findianexpress.com%2farticle%2fworld%2fworld-news%2fegypt-isis-attack-kills-15-security-personnel-in-north-sinai%2f&p=DevEx,5233.1
p104
sg13
g102
sg14
VEgypt: ISIS attack kills 15 security personnel in north Sinai The incident took place two days after five soldiers were killed and eight others injured when militants attacked an army checkpoint with mortar shell in Egypt's Rafah city.
p105
sg16
(dp106
g18
g102
sg19
g104
sg20
V2017-04-02T17:36:00
p107
sg22
g103
sg23
g105
sg24
Vhttps://api.cognitive.microsoft.com/api/v5/#WebPages.8
p108
ssg26
g108
sg27
Nsg28
g105
sbag1
(g2
g3
Ntp109
Rp110
(dp111
g7
VEgypt attacks signal ISIS' expanding reach - CNN.com
p112
sg9
Vwww.cnn.com/2015/07/02/world/isis-egypt-expanding-reach/index.html
p113
sg11
Vhttp://www.bing.com/cr?IG=7960AA5EA86242F7922DF9BA118B7917&CID=3E5905DA369E61132EFB0F85377760D7&rd=1&h=k4oHN8ZTZt9tv4ZshCl5v2zkRBlERUOJI5VgPd0ehQM&v=1&r=http%3a%2f%2fwww.cnn.com%2f2015%2f07%2f02%2fworld%2fisis-egypt-expanding-reach%2findex.html&p=DevEx,5248.1
p114
sg13
g112
sg14
VStory highlights. ISIS claimed responsibility for attacks in Egypt, Tunisia and Kuwait in the past week; The influence of the Sunni extremist group is spreading across the Middle East and North Africa
p115
sg16
(dp116
g18
g112
sg19
g114
sg20
V2017-03-27T07:40:00
p117
sg22
g113
sg23
g115
sg24
Vhttps://api.cognitive.microsoft.com/api/v5/#WebPages.9
p118
ssg26
g118
sg27
Nsg28
g115
sbag1
(g2
g3
Ntp119
Rp120
(dp121
g7
VISIS Egypt Hotel Attack: Deadly Hurghada Resort Siege On Foreign ...
p122
sg9
Vwww.ibtimes.com/isis-egypt-hotel-attack-deadly-hurghada-resort...
p123
sg11
Vhttp://www.bing.com/cr?IG=7960AA5EA86242F7922DF9BA118B7917&CID=3E5905DA369E61132EFB0F85377760D7&rd=1&h=csH5k5XQCU59-aayV_AEb8lpWztky1-YI2Y80tEusys&v=1&r=http%3a%2f%2fwww.ibtimes.com%2fisis-egypt-hotel-attack-deadly-hurghada-resort-siege-foreign-tourists-claimed-islamic-2257432&p=DevEx,5264.1
p124
sg13
g122
sg14
VAt least one person was killed and two injured in a Friday attack at a resort hotel in Egypt for which ISIS extremists claimed responsibility, according to reports.
p125
sg16
(dp126
g18
g122
sg19
g124
sg20
V2017-03-30T19:22:00
p127
sg22
g123
sg23
g125
sg24
Vhttps://api.cognitive.microsoft.com/api/v5/#WebPages.10
p128
ssg26
g128
sg27
Nsg28
g125
sbag1
(g2
g3
Ntp129
Rp130
(dp131
g7
VCairo hotel attack: Isis claims responsibility for ... - The Independent
p132
sg9
Vwww.independent.co.uk/news/world/africa/egypt-hotel-attack-isis...
p133
sg11
Vhttp://www.bing.com/cr?IG=7960AA5EA86242F7922DF9BA118B7917&CID=3E5905DA369E61132EFB0F85377760D7&rd=1&h=8g34f0GbWf_trQI6oaReodGpLt1iRrLKwySTNwvJTm0&v=1&r=http%3a%2f%2fwww.independent.co.uk%2fnews%2fworld%2fafrica%2fegypt-hotel-attack-isis-claims-responsibility-for-targeting-israeli-arab-tourists-after-call-to-a6802181.html&p=DevEx,5282.1
p134
sg13
g132
sg14
VEgyptian forensic experts inspect a window at the entrance of the Three Pyramids hotel in Cairo's al-Harm district on January 7, 2016 AFP/Getty Images Isis has claimed responsibility for an attack on a hotel near the Pyramids of Giza in Cairo yesterday. The terrorist group released a statement via
p135
sg16
(dp136
g18
g132
sg19
g134
sg20
V2017-03-28T13:58:00
p137
sg22
g133
sg23
g135
sg24
Vhttps://api.cognitive.microsoft.com/api/v5/#WebPages.11
p138
ssg26
g138
sg27
Nsg28
g135
sbag1
(g2
g3
Ntp139
Rp140
(dp141
g7
VIn New Video, ISIS Threatens to Attack Israel from Egypt
p142
sg9
Vhttps://unitedwithisrael.org/in-new-video-isis-threatens-to-attack...
p143
sg11
Vhttps://www.bing.com/cr?IG=7960AA5EA86242F7922DF9BA118B7917&CID=3E5905DA369E61132EFB0F85377760D7&rd=1&h=f5LnzLLO0NeQL4XXHMuwXrxbGY-eQEj_lW6bknApGQs&v=1&r=https%3a%2f%2funitedwithisrael.org%2fin-new-video-isis-threatens-to-attack-israel-from-egypt%2f&p=DevEx,5294.1
p144
sg13
g142
sg14
VISIS has again threatened to attack Israel from Egypt. The IDF is taking the threat seriously and preparing for any developments. A video purportedly made by Egypt\u2019s Islamic State (ISIS) affiliate has delivered a rare direct threat to Israel, saying the Jewish state will soon \u201cpay a high price.\u201d
p145
sg16
(dp146
g18
g142
sg19
g144
sg20
V2017-03-20T01:00:00
p147
sg22
g143
sg23
g145
sg24
Vhttps://api.cognitive.microsoft.com/api/v5/#WebPages.12
p148
ssg26
g148
sg27
Nsg28
g145
sbag1
(g2
g3
Ntp149
Rp150
(dp151
g7
VISIS claims responsibility for Egypt Sinai Peninsula attacks - CBS News
p152
sg9
Vwww.cbsnews.com/news/isis-claims-responsibility-egypt-sinai...
p153
sg11
Vhttp://www.bing.com/cr?IG=7960AA5EA86242F7922DF9BA118B7917&CID=3E5905DA369E61132EFB0F85377760D7&rd=1&h=UwHDlrMhv8xa45gSZy6j4F1h148obT2h7Ydw2uOxexI&v=1&r=http%3a%2f%2fwww.cbsnews.com%2fnews%2fisis-claims-responsibility-egypt-sinai-peninsula-attacks%2f&p=DevEx,5310.1
p154
sg13
g152
sg14
VEL-ARISH, Egypt -- An Egyptian militant group affiliated with the Islamic State of Iraq and Syria has claimed responsibility for coordinated and simultaneous attacks that struck more than a dozen army and police targets in three towns in the restive Sinai Peninsula, killing at least 26 security officers.
p155
sg16
(dp156
Vabout
p157
(lp158
(dp159
g18
VSinai Peninsula
p160
sasg18
g152
sg19
g154
sg20
V2017-03-30T21:52:00
p161
sg22
g153
sg23
g155
sg24
Vhttps://api.cognitive.microsoft.com/api/v5/#WebPages.13
p162
ssg26
g162
sg27
Nsg28
g155
sbag1
(g2
g3
Ntp163
Rp164
(dp165
g7
VJihadist Attacks on Egypt Grow Fiercer - The New York Times
p166
sg9
Vhttps://www.nytimes.com/.../02/world/middleeast/sinai-isis-attack.html
p167
sg11
Vhttps://www.bing.com/cr?IG=7960AA5EA86242F7922DF9BA118B7917&CID=3E5905DA369E61132EFB0F85377760D7&rd=1&h=Ha1sJ1zOem-6TtovYZqfCaRsDos-ffG9E609ciwPKBM&v=1&r=https%3a%2f%2fwww.nytimes.com%2f2015%2f07%2f02%2fworld%2fmiddleeast%2fsinai-isis-attack.html&p=DevEx,5322.1
p168
sg13
g166
sg14
VSmoke hung over the landscape in Egypt\u2019s northern Sinai Peninsula after the Islamic State launched attacks on Egyptian military checkpoints.
p169
sg16
(dp170
g18
g166
sg19
g168
sg20
V2017-03-17T18:23:00
p171
sg22
g167
sg23
g169
sg24
Vhttps://api.cognitive.microsoft.com/api/v5/#WebPages.14
p172
ssg26
g172
sg27
Nsg28
g169
sbag1
(g2
g3
Ntp173
Rp174
(dp175
g7
VISIS suicide bombers attack army checkpoints in Egypt; 60 killed ...
p176
sg9
Vtimesofindia.indiatimes.com/world/middle-east/ISIS-suicide-bombers...
p177
sg11
Vhttp://www.bing.com/cr?IG=7960AA5EA86242F7922DF9BA118B7917&CID=3E5905DA369E61132EFB0F85377760D7&rd=1&h=Ei4oIsJU0SRFJMRnhs8MwbNZ67zNOfJ7QCiAC6LD7pM&v=1&r=http%3a%2f%2ftimesofindia.indiatimes.com%2fworld%2fmiddle-east%2fISIS-suicide-bombers-attack-army-checkpoints-in-Egypt-60-killed%2farticleshow%2f47896781.cms&p=DevEx,5336.1
p178
sg13
g176
sg14
VCAIRO: At least 60 Egyptian soldiers were on Wednesday killed as heavily-armed ISIS militants launched a wave of simultaneous attacks on army checkpoints, including three suicide bombings, in one of the biggest assaults in the restive Sinai Peninsula.
p179
sg16
(dp180
g18
g176
sg19
g178
sg20
V2017-02-24T22:01:00
p181
sg22
g177
sg23
g179
sg24
Vhttps://api.cognitive.microsoft.com/api/v5/#WebPages.15
p182
ssg26
g182
sg27
Nsg28
g179
sbag1
(g2
g3
Ntp183
Rp184
(dp185
g7
VISIS calls for more attacks in Egypt - Daily News Egypt
p186
sg9
Vwww.dailynewsegypt.com/2014/09/22/isis-calls-attacks-egypt
p187
sg11
Vhttp://www.bing.com/cr?IG=7960AA5EA86242F7922DF9BA118B7917&CID=3E5905DA369E61132EFB0F85377760D7&rd=1&h=1bME3W6DAmgV45hVdK8T39uzZGE1Rx7XZfEGFa_wSuE&v=1&r=http%3a%2f%2fwww.dailynewsegypt.com%2f2014%2f09%2f22%2fisis-calls-attacks-egypt%2f&p=DevEx,5351.1
p188
sg13
g186
sg14
VISIS calls for more attacks in Egypt. Extremist group congratulates militants in Egypt for \u2018their blessed operations in Sinai\u2019
p189
sg16
(dp190
g18
g186
sg19
g188
sg20
V2017-03-27T12:20:00
p191
sg22
g187
sg23
g189
sg24
Vhttps://api.cognitive.microsoft.com/api/v5/#WebPages.16
p192
ssg26
g192
sg27
Nsg28
g189
sbag1
(g2
g3
Ntp193
Rp194
(dp195
g7
VISIS Claims Responsibility for Terror Attacks in Cairo - Vocativ
p196
sg9
Vwww.vocativ.com/world/isis-2/isis-terror-attacks-cairo
p197
sg11
Vhttp://www.bing.com/cr?IG=7960AA5EA86242F7922DF9BA118B7917&CID=3E5905DA369E61132EFB0F85377760D7&rd=1&h=4mUk67hd94wSLYjGKurqwN7H9nBIwuMRQ5RmeOyhEdg&v=1&r=http%3a%2f%2fwww.vocativ.com%2fworld%2fisis-2%2fisis-terror-attacks-cairo%2f&p=DevEx,5365.1
p198
sg13
g196
sg14
VISIS is claiming its agents killed five Egyptian soldiers in and around Cairo during the violence that flared on the streets of the Egyptian capital two days ago.
p199
sg16
(dp200
g18
g196
sg19
g198
sg20
V2017-04-02T19:01:00
p201
sg22
g197
sg23
g199
sg24
Vhttps://api.cognitive.microsoft.com/api/v5/#WebPages.17
p202
ssg26
g202
sg27
Nsg28
g199
sbag1
(g2
g3
Ntp203
Rp204
(dp205
g7
VISIS claims attack on Israeli tourists in Cairo - Jpost.com
p206
sg9
Vwww.jpost.com/Arab-Israeli-Conflict/ISIS-claims-attack-on-Israeli...
p207
sg11
Vhttp://www.bing.com/cr?IG=7960AA5EA86242F7922DF9BA118B7917&CID=3E5905DA369E61132EFB0F85377760D7&rd=1&h=p4D-i1XLgmut-ZPHF1ttrV4bJQeUGrI30IUSNbNU4HA&v=1&r=http%3a%2f%2fwww.jpost.com%2fArab-Israeli-Conflict%2fISIS-claims-attack-on-Israeli-tourists-in-Cairo-440865&p=DevEx,5379.1
p208
sg13
g206
sg14
VBus carrying two Israeli tourists was fired on in Egypt On Thursday, Egypt\u2019s Interior Ministry said the attack was directed at security forces.
p209
sg16
(dp210
g18
g206
sg19
g208
sg20
V2017-03-26T21:10:00
p211
sg22
g207
sg23
g209
sg24
Vhttps://api.cognitive.microsoft.com/api/v5/#WebPages.18
p212
ssg26
g212
sg27
Nsg28
g209
sbag1
(g2
g3
Ntp213
Rp214
(dp215
g7
VU.S. Won\u2019t Back Egypt\u2019s Attacks on ISIS - The Daily Beast
p216
sg9
Vwww.thedailybeast.com/.../u-s-won-t-back-egypt-s-attacks-on-isis.html
p217
sg11
Vhttp://www.bing.com/cr?IG=7960AA5EA86242F7922DF9BA118B7917&CID=3E5905DA369E61132EFB0F85377760D7&rd=1&h=q4k0MviTWtZH9m9ChkEyjUwy1YytiiCGHvlQYQWor9U&v=1&r=http%3a%2f%2fwww.thedailybeast.com%2farticles%2f2015%2f02%2f18%2fu-s-won-t-back-egypt-s-attacks-on-isis.html&p=DevEx,5394.1
p218
sg13
g216
sg14
VThe Obama administration was given multiple chances Wednesday to endorse a longtime ally\u2019s airstrikes on America\u2019s biggest enemy at the moment, the so-called Islamic State. Over and over again, Obama\u2019s aides declined to back Egypt\u2019s military operation against ISIS. It\u2019s another sign of the
p219
sg16
(dp220
g18
g216
sg19
g218
sg20
V2017-03-24T20:34:00
p221
sg22
g217
sg23
g219
sg24
Vhttps://api.cognitive.microsoft.com/api/v5/#WebPages.19
p222
ssg26
g222
sg27
Nsg28
g219
sbag1
(g2
g3
Ntp223
Rp224
(dp225
g7
VEgypt\u2019s ISIS branch claims deadly Sinai attack - Al Arabiya English
p226
sg9
Venglish.alarabiya.net/en/News/middle-east/2015/04/03/Egypt-s-ISIS...
p227
sg11
Vhttp://www.bing.com/cr?IG=7960AA5EA86242F7922DF9BA118B7917&CID=3E5905DA369E61132EFB0F85377760D7&rd=1&h=M33PrqXOoI8VzoZIDR88u_LSb4M1rwbRYtS1PREXR7Q&v=1&r=http%3a%2f%2fenglish.alarabiya.net%2fen%2fNews%2fmiddle-east%2f2015%2f04%2f03%2fEgypt-s-ISIS-branch-claims-deadly-Sinai-attack.html&p=DevEx,5406.1
p228
sg13
g226
sg14
VThe Islamic State of Iraq and Syria (ISIS) branch in Egypt has claimed responsibility for a wave of deadly attacks that killed 15 Egyptian soldiers
p229
sg16
(dp230
g18
g226
sg19
g228
sg20
V2017-03-06T04:33:00
p231
sg22
g227
sg23
g229
sg24
Vhttps://api.cognitive.microsoft.com/api/v5/#WebPages.20
p232
ssg26
g232
sg27
Nsg28
g229
sbag1
(g2
g3
Ntp233
Rp234
(dp235
g7
VTourists shun resorts from Egypt to Turkey in wake of Isis attacks ...
p236
sg9
Vhttps://www.theguardian.com/world/2016/jan/16/mediterranean...
p237
sg11
Vhttps://www.bing.com/cr?IG=7960AA5EA86242F7922DF9BA118B7917&CID=3E5905DA369E61132EFB0F85377760D7&rd=1&h=XXUsFnxsYNkAqf91rpHT6y1ovCZPjvXunvkTTSs9tIw&v=1&r=https%3a%2f%2fwww.theguardian.com%2fworld%2f2016%2fjan%2f16%2fmediterranean-resorts-fall-in-tourism-numbers-due-to-isis-attacks&p=DevEx,5422.1
p238
sg13
g236
sg14
VSun and sand holidays underpinned North African economies but incidents in Sousse and Sharm el-Sheikh have led to severe drop in visitor numbers
p239
sg16
(dp240
g18
g236
sg19
g238
sg20
V2017-03-23T15:12:00
p241
sg22
g237
sg23
g239
sg24
Vhttps://api.cognitive.microsoft.com/api/v5/#WebPages.21
p242
ssg26
g242
sg27
Nsg28
g239
sbag1
(g2
g3
Ntp243
Rp244
(dp245
g7
VISIS Claims Responsibility for Egypt Church Bombing and Warns of More ...
p246
sg9
Vhttps://www.nytimes.com/2016/12/13/world/middleeast/egypt-isis...
p247
sg11
Vhttps://www.bing.com/cr?IG=7960AA5EA86242F7922DF9BA118B7917&CID=3E5905DA369E61132EFB0F85377760D7&rd=1&h=p5FSuvO9IhH7U_rTBpiyToK_5oO-iGghmGGbGuGUe2Y&v=1&r=https%3a%2f%2fwww.nytimes.com%2f2016%2f12%2f13%2fworld%2fmiddleeast%2fegypt-isis-bombing-coptic-christians.html&p=DevEx,5434.1
p248
sg13
g246
sg14
VCAIRO \u2014 Egypt faced the prospect of a surge in sectarian bloodshed on Tuesday after the Islamic State claimed responsibility for the bombing of a Coptic cathedral in Cairo that killed 25 people on Sunday. The group warned of more attacks to come. As Christians gathered in churches to pay their
p249
sg16
(dp250
g18
g246
sg19
g248
sg20
V2017-03-31T13:53:00
p251
sg22
g247
sg23
g249
sg24
Vhttps://api.cognitive.microsoft.com/api/v5/#WebPages.22
p252
ssg26
g252
sg27
Nsg28
g249
sbag1
(g2
g3
Ntp253
Rp254
(dp255
g7
VAt least 32 killed in Egypt as militants attack army and police targets ...
p256
sg9
Vhttps://www.theguardian.com/world/2015/jan/29/egypt-army-police...
p257
sg11
Vhttps://www.bing.com/cr?IG=7960AA5EA86242F7922DF9BA118B7917&CID=3E5905DA369E61132EFB0F85377760D7&rd=1&h=rOfbvDEJaNL7V-lRZZVbPl3dm5zl4_pr0NvYgZB0Hps&v=1&r=https%3a%2f%2fwww.theguardian.com%2fworld%2f2015%2fjan%2f29%2fegypt-army-police-sinai-el-arish-sheikh-zuwayed-rafah&p=DevEx,5449.1
p258
sg13
g256
sg14
VAt least 32 killed in Egypt as militants attack army and police targets in Sinai Attacks including car bombs and mortar rounds claimed by Islamic State\u2019s affiliate in region. ... Isis\u2019s affiliate in the region, Province of Sinai, claimed responsibility for the killings, after issuing warnings on jihadist forums earlier in the day that an attack was in the offing.
p259
sg16
(dp260
g18
g256
sg19
g258
sg20
V2017-03-27T18:48:00
p261
sg22
g257
sg23
g259
sg24
Vhttps://api.cognitive.microsoft.com/api/v5/#WebPages.23
p262
ssg26
g262
sg27
Nsg28
g259
sbag1
(g2
g3
Ntp263
Rp264
(dp265
g7
VISIS attacks Egyptian navy vessel in the Mediterranean
p266
sg9
Vwww.dailymail.co.uk/news/article-3163910/Terror-high-seas-Egyptian...
p267
sg11
Vhttp://www.bing.com/cr?IG=7960AA5EA86242F7922DF9BA118B7917&CID=3E5905DA369E61132EFB0F85377760D7&rd=1&h=sw8ug_9N0mjcFrKFnv8okYmhcUWBi890aSWWlED8gRU&v=1&r=http%3a%2f%2fwww.dailymail.co.uk%2fnews%2farticle-3163910%2fTerror-high-seas-Egyptian-navy-vessel-erupts-huge-fireball-ISIS-carry-rocket-strike-patrol-ship-Mediterranean.html&p=DevEx,5463.1
p268
sg13
g266
sg14
VExtremists loyal to the Islamic State in Egypt have attacked a naval patrol ship in the Mediterranean Sea, causing it to burst into flames. The Egyptian military said earlier a coastguard vessel had exchanged shots with militants just two miles off the coast of northern Sinai, an area bordering Israel and the Gaza Strip.
p269
sg16
(dp270
g18
g266
sg19
g268
sg20
V2017-03-27T08:35:00
p271
sg22
g267
sg23
g269
sg24
Vhttps://api.cognitive.microsoft.com/api/v5/#WebPages.24
p272
ssg26
g272
sg27
Nsg28
g269
sbag1
(g2
g3
Ntp273
Rp274
(dp275
g7
VISIS attack Egyptian army as President Sisi pledges ... - Daily Mail Online
p276
sg9
Vwww.dailymail.co.uk/news/article-3146072/ISIS-kill-38-soldiers...
p277
sg11
Vhttp://www.bing.com/cr?IG=7960AA5EA86242F7922DF9BA118B7917&CID=3E5905DA369E61132EFB0F85377760D7&rd=1&h=cfo8cflxn6gF0eatpoxGb-UntGG2fyQ0MVwiVQEUPNo&v=1&r=http%3a%2f%2fwww.dailymail.co.uk%2fnews%2farticle-3146072%2fISIS-kill-38-soldiers-simultaneous-attacks-Egyptian-army-checkpoints-day-nation-s-president-pledged-combat-Islamists.html&p=DevEx,5477.1
p278
sg13
g276
sg14
VISIS kill at least 38 soldiers in simultaneous attacks on Egyptian army checkpoints a day after the nation's president pledged to combat Islamists
p279
sg16
(dp280
g18
g276
sg19
g278
sg20
V2017-03-29T20:38:00
p281
sg22
g277
sg23
g279
sg24
Vhttps://api.cognitive.microsoft.com/api/v5/#WebPages.25
p282
ssg26
g282
sg27
Nsg28
g279
sbag1
(g2
g3
Ntp283
Rp284
(dp285
g7
VISIS Group Claims Responsibility for Attacks That Killed 27 in Egypt ...
p286
sg9
Vwww.nbcnews.com/storyline/isis-terror/isis-group-claims...
p287
sg11
Vhttp://www.bing.com/cr?IG=7960AA5EA86242F7922DF9BA118B7917&CID=3E5905DA369E61132EFB0F85377760D7&rd=1&h=Y-LZwKCWVO8sskPa5-HoC5nj4yDnBe0cBctFVb1hWy0&v=1&r=http%3a%2f%2fwww.nbcnews.com%2fstoryline%2fisis-terror%2fisis-group-claims-responsibility-attacks-killed-27-egypt-n296531&p=DevEx,5490.1
p288
sg13
g286
sg14
VAn affiliate of the Islamist terror group ISIS has claimed responsibility for a series of deadly attacks in Egypt on Thursday, security consultants told NBC News.
p289
sg16
(dp290
g18
g286
sg19
g288
sg20
V2017-04-03T03:00:00
p291
sg22
g287
sg23
g289
sg24
Vhttps://api.cognitive.microsoft.com/api/v5/#WebPages.26
p292
ssg26
g292
sg27
Nsg28
g289
sbag1
(g2
g3
Ntp293
Rp294
(dp295
g7
VWATCH: ISIS releases dramatic footage of attack on Egyptian naval ...
p296
sg9
Vwww.jpost.com/Middle-East/ISIS-Threat/ISIS-releases-dramatic...
p297
sg11
Vhttp://www.bing.com/cr?IG=7960AA5EA86242F7922DF9BA118B7917&CID=3E5905DA369E61132EFB0F85377760D7&rd=1&h=KssFptHx0g5qrKDVva5Su09AIibUihgWrg4DSfwUK8w&v=1&r=http%3a%2f%2fwww.jpost.com%2fMiddle-East%2fISIS-Threat%2fISIS-releases-dramatic-footage-of-attack-on-Egyptian-naval-vessel-latest-attacks-leave-5-dead-409441&p=DevEx,5504.1
p298
sg13
g296
sg14
VISIS has released dramatic footage of Thursday's attack on an Egyptian naval vessel in the Mediterranean sea, near the coast of Israel and the Gaza strip.
p299
sg16
(dp300
g18
g296
sg19
g298
sg20
V2017-03-29T05:00:00
p301
sg22
g297
sg23
g299
sg24
Vhttps://api.cognitive.microsoft.com/api/v5/#WebPages.27
p302
ssg26
g302
sg27
Nsg28
g299
sbag1
(g2
g3
Ntp303
Rp304
(dp305
g7
VISIS attacks Christian churches in Egypt on Palm Sunday | WREG.com
p306
sg9
Vwreg.com/2017/04/09/isis-attacks-christian-churches-in-egypt-on...
p307
sg11
Vhttp://www.bing.com/cr?IG=7960AA5EA86242F7922DF9BA118B7917&CID=3E5905DA369E61132EFB0F85377760D7&rd=1&h=4g0LXN9u8Ut7DBwasu9SFpO5637nbc6Y3ze254RChn8&v=1&r=http%3a%2f%2fwreg.com%2f2017%2f04%2f09%2fisis-attacks-christian-churches-in-egypt-on-palm-sunday%2f&p=DevEx,5519.1
p308
sg13
g306
sg14
VEGYPT \u2014 Bombs targeted two Coptic churches in Egypt as the Christian faithful observed Palm Sunday, one of the most important days on the religion\u2019s calendar. ISIS has claimed responsibility for the attacks. A powerful blast rippled through a Palm Sunday service at a Coptic Christian church in
p309
sg16
(dp310
g18
g306
sg19
g308
sg20
V2017-04-09T14:10:00
p311
sg22
g307
sg23
g309
sg24
Vhttps://api.cognitive.microsoft.com/api/v5/#WebPages.28
p312
ssg26
g312
sg27
Nsg28
g309
sbag1
(g2
g3
Ntp313
Rp314
(dp315
g7
V'100 killed' in ISIS attacks on Egyptian checkpoints in Sinai
p316
sg9
Vhttps://www.rt.com/news/270946-isis-sinai-attacks-egypt
p317
sg11
Vhttps://www.bing.com/cr?IG=7960AA5EA86242F7922DF9BA118B7917&CID=3E5905DA369E61132EFB0F85377760D7&rd=1&h=XLba_gZt9DFafom3LhLr_MXnp5lb2LHQITRGtDHw4gE&v=1&r=https%3a%2f%2fwww.rt.com%2fnews%2f270946-isis-sinai-attacks-egypt%2f&p=DevEx,5532.1
p318
sg13
g316
sg14
VAt least 100 Egyptians, including soldiers, were killed after an Islamic State affiliate launched simultaneous attacks on army checkpoints in the Sinai Peninsula, officials said. It comes two days after Egypt's top prosecutor was assassinated.
p319
sg16
(dp320
g18
g316
sg19
g318
sg20
V2017-03-28T03:33:00
p321
sg22
g317
sg23
g319
sg24
Vhttps://api.cognitive.microsoft.com/api/v5/#WebPages.29
p322
ssg26
g322
sg27
Nsg28
g319
sbag1
(g2
g3
Ntp323
Rp324
(dp325
g7
VISIS claims responsibility for attacks on two churches in Egypt which ...
p326
sg9
Vhttps://news.vice.com/story/isis-claims-responsibility-for-attacks...
p327
sg11
Vhttps://www.bing.com/cr?IG=7960AA5EA86242F7922DF9BA118B7917&CID=3E5905DA369E61132EFB0F85377760D7&rd=1&h=BrsXSgeS5nqXNHkhqPIkjMPNFSgBNiYS6zVBPSRSnKU&v=1&r=https%3a%2f%2fnews.vice.com%2fstory%2fisis-claims-responsibility-for-attacks-on-two-churches-in-egypt-which-have-killed-at-least-42-people&p=DevEx,5546.1
p328
sg13
g326
sg14
VThe Islamic State group has claimed responsibility for attacks on two Coptic churches on Palm Sunday in Egypt, which killed at least 42 people and left dozens more injured.
p329
sg16
(dp330
g18
g326
sg19
g328
sg20
V2017-04-09T17:22:00
p331
sg22
g327
sg23
g329
sg24
Vhttps://api.cognitive.microsoft.com/api/v5/#WebPages.30
p332
ssg26
g332
sg27
Nsg28
g329
sbag1
(g2
g3
Ntp333
Rp334
(dp335
g7
VISIS Claims Responsibility for Church Attacks in Egypt's Tanta and ...
p336
sg9
Vhttps://www.zerocensorship.com/uncensored/isis/claims...
p337
sg11
Vhttps://www.bing.com/cr?IG=7960AA5EA86242F7922DF9BA118B7917&CID=3E5905DA369E61132EFB0F85377760D7&rd=1&h=9IQmAmIqtr0m0MKg05zpfz8ISnUiYz_qG1S6F78AJQw&v=1&r=https%3a%2f%2fwww.zerocensorship.com%2funcensored%2fisis%2fclaims-responsibility-church-attacks-egypts-tanta-alexandria-422470&p=DevEx,5560.1
p338
sg13
g336
sg14
VThe Daesh terrorist group has claimed responsibility for the attacks on churches in Egypt on Palm Sunday. The attacks left dozens of people dead.
p339
sg16
(dp340
g18
g336
sg19
g338
sg20
V2017-04-09T17:19:00
p341
sg22
g337
sg23
g339
sg24
Vhttps://api.cognitive.microsoft.com/api/v5/#WebPages.31
p342
ssg26
g342
sg27
Nsg28
g339
sbag1
(g2
g3
Ntp343
Rp344
(dp345
g7
VISIS claims attack on 2 Coptic churches in Egypt | CTV News
p346
sg9
Vwww.ctvnews.ca/world/isis-claims-attack-on-2-coptic-churches-in...
p347
sg11
Vhttp://www.bing.com/cr?IG=7960AA5EA86242F7922DF9BA118B7917&CID=3E5905DA369E61132EFB0F85377760D7&rd=1&h=knCozISRBEh8TO6tbXz3UGJbl3xmaPDsVEO7namQrfU&v=1&r=http%3a%2f%2fwww.ctvnews.ca%2fworld%2fisis-claims-attack-on-2-coptic-churches-in-egypt-1.3361085&p=DevEx,5572.1
p348
sg13
g346
sg14
VThe Islamic State group is claiming responsibility for the attacks on two Coptic churches in Egypt that killed dozens.
p349
sg16
(dp350
g18
g346
sg19
g348
sg20
V2017-04-09T12:59:00
p351
sg22
g347
sg23
g349
sg24
Vhttps://api.cognitive.microsoft.com/api/v5/#WebPages.32
p352
ssg26
g352
sg27
Nsg28
g349
sbag1
(g2
g3
Ntp353
Rp354
(dp355
g7
VISIS claims responsibility for attacks in Egypt - YouTube
p356
sg9
Vhttps://www.youtube.com/watch?v=w-mfmxz0hv8
p357
sg11
Vhttps://www.bing.com/cr?IG=7960AA5EA86242F7922DF9BA118B7917&CID=3E5905DA369E61132EFB0F85377760D7&rd=1&h=azrin_FxZAk7V6VaQTaTDxmkMgMUpvJo-EYcqxsuKUI&v=1&r=https%3a%2f%2fwww.youtube.com%2fwatch%3fv%3dw-mfmxz0hv8&p=DevEx,5584.1
p358
sg13
g356
sg14
VISIS claims responsibility for attacks in Egypt Newsy. Loading... Unsubscribe from Newsy? Cancel Unsubscribe. Working... Subscribe Subscribed Unsubscribe 29,334 29K. Loading... Loading... Working... Add to. Want to watch this again later? Sign in to add this video to a playlist. Sign in. Share More. Report. Need to report the video? Sign in to report inappropriate content. Sign in. Transcript; Add ...
p359
sg16
(dp360
g18
g356
sg19
g358
sg20
V2017-04-09T19:02:00
p361
sg22
g357
sg23
g359
sg24
Vhttps://api.cognitive.microsoft.com/api/v5/#WebPages.33
p362
ssg26
g362
sg27
Nsg28
g359
sbag1
(g2
g3
Ntp363
Rp364
(dp365
g7
VU.S. Rushes Reinforcements to Egypt After ISIS Attack - The Daily Beast
p366
sg9
Vwww.thedailybeast.com/articles/2015/09/10/u-s-rushes...
p367
sg11
Vhttp://www.bing.com/cr?IG=7960AA5EA86242F7922DF9BA118B7917&CID=3E5905DA369E61132EFB0F85377760D7&rd=1&h=JGIdiPegwTGbwG3aUGyvtItjnOeb-7k2V381-aJi5fQ&v=1&r=http%3a%2f%2fwww.thedailybeast.com%2farticles%2f2015%2f09%2f10%2fu-s-rushes-reinforcements-to-egypt-after-isis-attack.html&p=DevEx,5599.1
p368
sg13
g366
sg14
VISIS is now targeting peacekeepers in Sinai; the latest bomb hurt four U.S. troops. The Pentagon is sending more aid\u2014but there\u2019s talk of pulling out in the face of the threat.
p369
sg16
(dp370
g18
g366
sg19
g368
sg20
V2017-04-02T08:45:00
p371
sg22
g367
sg23
g369
sg24
Vhttps://api.cognitive.microsoft.com/api/v5/#WebPages.34
p372
ssg26
g372
sg27
Nsg28
g369
sbag1
(g2
g3
Ntp373
Rp374
(dp375
g7
VEgypt: Attacks on Copts in Sinai 'a message from ISIL'
p376
sg9
Vwww.aljazeera.com/indepth/features/2017/03/egypt-attacks-copts...
p377
sg11
Vhttp://www.bing.com/cr?IG=7960AA5EA86242F7922DF9BA118B7917&CID=3E5905DA369E61132EFB0F85377760D7&rd=1&h=al5wnjegvztrt8mh5wN2wYFoeIHXLTBCW-37-y5Sxts&v=1&r=http%3a%2f%2fwww.aljazeera.com%2findepth%2ffeatures%2f2017%2f03%2fegypt-attacks-copts-sinai-message-isil-170301072118504.html&p=DevEx,5611.1
p378
sg13
g376
sg14
VFeatures ISIS Attacks on Copts in Sinai 'a message from ISIL' The state's 'war on terrorism' in Sinai has proved unsuccessful, say analysts. 01 Mar 2017 10:39 GMT ... "The primary target of the attacks is the Egyptian state and its ability to provide security for its citizens," he said, adding it was difficult to know whether the attacks were politically or religiously motivated.
p379
sg16
(dp380
g18
g376
sg19
g378
sg20
V2017-03-25T03:04:00
p381
sg22
g377
sg23
g379
sg24
Vhttps://api.cognitive.microsoft.com/api/v5/#WebPages.35
p382
ssg26
g382
sg27
Nsg28
g379
sbag1
(g2
g3
Ntp383
Rp384
(dp385
g7
V64 soldiers killed in ISIS attack on Egyptian Army's Sinai checkpoints ...
p386
sg9
Vwww.foxnews.com/world/2015/07/01/30-dead-after-islamic-militants...
p387
sg11
Vhttp://www.bing.com/cr?IG=7960AA5EA86242F7922DF9BA118B7917&CID=3E5905DA369E61132EFB0F85377760D7&rd=1&h=zU86n6ELbiEVuxXhWjEU-mvnlpHGk4qOfDNdMTZtbkA&v=1&r=http%3a%2f%2fwww.foxnews.com%2fworld%2f2015%2f07%2f01%2f30-dead-after-islamic-militants-attack-egyptian-army-checkpoints.html&p=DevEx,5626.1
p388
sg13
g386
sg14
VIslamic militants on Wednesday unleashed a wave of simultaneous attacks, including suicide car bombings, on Egyptian army checkpoints in the restive northern Sinai Peninsula, killing at least 38 soldiers, security and military officials said.
p389
sg16
(dp390
g18
g386
sg19
g388
sg20
V2017-04-03T07:25:00
p391
sg22
g387
sg23
g389
sg24
Vhttps://api.cognitive.microsoft.com/api/v5/#WebPages.36
p392
ssg26
g392
sg27
Nsg28
g389
sbag1
(g2
g3
Ntp393
Rp394
(dp395
g7
V45 dead, 119 injured in ISIS blasts at Egypt's Coptic churches
p396
sg9
Vtimesofindia.indiatimes.com/world/middle-east/36-dead-140-injured...
p397
sg11
Vhttp://www.bing.com/cr?IG=7960AA5EA86242F7922DF9BA118B7917&CID=3E5905DA369E61132EFB0F85377760D7&rd=1&h=RhJn08d8IfBqfMx5qWjdmSOKBP9EK8V50QKhHArPsiE&v=1&r=http%3a%2f%2ftimesofindia.indiatimes.com%2fworld%2fmiddle-east%2f36-dead-140-injured-in-isis-blasts-at-egypts-coptic-churches%2farticleshow%2f58095306.cms&p=DevEx,5638.1
p398
sg13
g396
sg14
VAt least 45 people were killed and nearly 119 others injured today in twin ISIS blasts targeting Coptic churches packed with worshippers who had gathered for Palm Sunday mass in Egyptian cities of Tanta and Alexandria, the deadliest attacks on minority Christians in recent years.
p399
sg16
(dp400
g18
g396
sg19
g398
sg20
V2017-04-09T17:10:00
p401
sg22
g397
sg23
g399
sg24
Vhttps://api.cognitive.microsoft.com/api/v5/#WebPages.37
p402
ssg26
g402
sg27
Nsg28
g399
sbag1
(g2
g3
Ntp403
Rp404
(dp405
g7
VISIS claims slaughter of Egyptian policemen near Cairo - CBS News
p406
sg9
Vwww.cbsnews.com/news/isis-claims-slaughter-egyptian-policemen-cairo
p407
sg11
Vhttp://www.bing.com/cr?IG=7960AA5EA86242F7922DF9BA118B7917&CID=3E5905DA369E61132EFB0F85377760D7&rd=1&h=8mZFsaAnEgsDwLEgSWtmM-4ekM0XCznWjHn_y3aGmlg&v=1&r=http%3a%2f%2fwww.cbsnews.com%2fnews%2fisis-claims-slaughter-egyptian-policemen-cairo%2f&p=DevEx,5652.1
p408
sg13
g406
sg14
VA picture taken in the early hours of May 8, 2016, shows a damaged vehicle following a gun attack on Egyptian policemen in Cairo's southern outskirts. CAIRO - Militants opened fire on a microbus filled with plainclothes police in a Cairo suburb early Sunday, killing eight of them, including an
p409
sg16
(dp410
g18
g406
sg19
g408
sg20
V2017-03-18T10:27:00
p411
sg22
g407
sg23
g409
sg24
Vhttps://api.cognitive.microsoft.com/api/v5/#WebPages.38
p412
ssg26
g412
sg27
Nsg28
g409
sbag1
(g2
g3
Ntp413
Rp414
(dp415
g7
VDozens killed in ISIS attacks on Egyptian churches | Haystack TV
p416
sg9
Vwww.haystack.tv/v/dozens-killed-isis-attacks-egyptian-churches
p417
sg11
Vhttp://www.bing.com/cr?IG=7960AA5EA86242F7922DF9BA118B7917&CID=3E5905DA369E61132EFB0F85377760D7&rd=1&h=HOyh-08QFr2FF42FYO_E_axGcNELQvRt7VkrlTVBJEs&v=1&r=http%3a%2f%2fwww.haystack.tv%2fv%2fdozens-killed-isis-attacks-egyptian-churches&p=DevEx,5666.1
p418
sg13
g416
sg14
VISIS claimed responsibility for bombings that killed dozens at two Coptic churches in Egypt on Palm Sunday.
p419
sg16
(dp420
g18
g416
sg19
g418
sg20
V2017-04-09T19:17:00
p421
sg22
g417
sg23
g419
sg24
Vhttps://api.cognitive.microsoft.com/api/v5/#WebPages.39
p422
ssg26
g422
sg27
Nsg28
g419
sbag1
(g2
g3
Ntp423
Rp424
(dp425
g7
VEgypt attacks ISIS hours after release of beheading video
p426
sg9
Vnypost.com/.../egypt-bombs-isis-hours-after-release-of-beheading-video
p427
sg11
Vhttp://www.bing.com/cr?IG=7960AA5EA86242F7922DF9BA118B7917&CID=3E5905DA369E61132EFB0F85377760D7&rd=1&h=VB970XC-jL3OUwd6jwrAqnr6Wru9g2k8-iHlgqc0Sq4&v=1&r=http%3a%2f%2fnypost.com%2f2015%2f02%2f16%2fegypt-bombs-isis-hours-after-release-of-beheading-video%2f&p=DevEx,5681.1
p428
sg13
g426
sg14
VEgyptian warplanes attacked ISIS targets inside Libya on Monday, in swift retaliation for the videotaped slaughter of Coptic Christians at the hands of Islamic terrorists.
p429
sg16
(dp430
g18
g426
sg19
g428
sg20
V2017-03-31T11:24:00
p431
sg22
g427
sg23
g429
sg24
Vhttps://api.cognitive.microsoft.com/api/v5/#WebPages.40
p432
ssg26
g432
sg27
Nsg28
g429
sbag1
(g2
g3
Ntp433
Rp434
(dp435
g7
VEgypt is Struggling to Cope With Its ISIS Insurgency - TIME
p436
sg9
Vtime.com/3969596/egypt-isis-sinai
p437
sg11
Vhttp://www.bing.com/cr?IG=7960AA5EA86242F7922DF9BA118B7917&CID=3E5905DA369E61132EFB0F85377760D7&rd=1&h=OZ8cVbvKFBDkZyAnZWCzcqfench32J_ADzXMYM7RWd4&v=1&r=http%3a%2f%2ftime.com%2f3969596%2fegypt-isis-sinai%2f&p=DevEx,5695.1
p438
sg13
g436
sg14
VA rocket attack on a warship was just the latest in a series of escalating attacks on Egyptian forces in Sinai
p439
sg16
(dp440
g18
g436
sg19
g438
sg20
V2017-04-02T03:48:00
p441
sg22
g437
sg23
g439
sg24
Vhttps://api.cognitive.microsoft.com/api/v5/#WebPages.41
p442
ssg26
g442
sg27
Nsg28
g439
sbag1
(g2
g3
Ntp443
Rp444
(dp445
g7
VDozens killed in ISIS attacks on Egyptian churches - YouTube
p446
sg9
Vhttps://www.youtube.com/watch?v=myftrpq2QNE
p447
sg11
Vhttps://www.bing.com/cr?IG=7960AA5EA86242F7922DF9BA118B7917&CID=3E5905DA369E61132EFB0F85377760D7&rd=1&h=rpxtNEuqPKWcK_euINDZ7CfI7MYhPA_AYIhAIdSmouI&v=1&r=https%3a%2f%2fwww.youtube.com%2fwatch%3fv%3dmyftrpq2QNE&p=DevEx,5711.1
p448
sg13
g446
sg14
VISIS claimed responsibility for bombings that killed dozens at two Coptic churches in Egypt on Palm Sunday.
p449
sg16
(dp450
g18
g446
sg19
g448
sg20
V2017-04-09T19:18:00
p451
sg22
g447
sg23
g449
sg24
Vhttps://api.cognitive.microsoft.com/api/v5/#WebPages.42
p452
ssg26
g452
sg27
Nsg28
g449
sbag1
(g2
g3
Ntp453
Rp454
(dp455
g7
VEgypt: ISIS Claims Responsibility For Palm Sunday Church Attacks
p456
sg9
Vhttps://legalinsurrection.com/2017/04/egypt-isis-claims...
p457
sg11
Vhttps://www.bing.com/cr?IG=7960AA5EA86242F7922DF9BA118B7917&CID=3E5905DA369E61132EFB0F85377760D7&rd=1&h=bbHJZhRV982_MJpfJ2dGEVDZzjY0KMbtJT__Ouq4s4Y&v=1&r=https%3a%2f%2flegalinsurrection.com%2f2017%2f04%2fegypt-isis-claims-responsibility-for-palm-sunday-church-attacks%2f&p=DevEx,5723.1
p458
sg13
g456
sg14
VISIS has claimed responsibility for two attacks on two Coptic churches in Egypt. The attacks took place this morning and left 37 people dead and over a hundred wounded.
p459
sg16
(dp460
g18
g456
sg19
g458
sg20
V2017-04-09T19:23:00
p461
sg22
g457
sg23
g459
sg24
Vhttps://api.cognitive.microsoft.com/api/v5/#WebPages.43
p462
ssg26
g462
sg27
Nsg28
g459
sbag1
(g2
g3
Ntp463
Rp464
(dp465
g7
VEgypt hotel shooting: Video shows aftermath of gun attack by 'ISIS ...
p466
sg9
Vwww.mirror.co.uk/news/world-news/egypt-hotel-shooting-video-shows...
p467
sg11
Vhttp://www.bing.com/cr?IG=7960AA5EA86242F7922DF9BA118B7917&CID=3E5905DA369E61132EFB0F85377760D7&rd=1&h=q-dH85IdYMSy-raS880wkIbcfhu2WIsiN0Xlh0LxHiY&v=1&r=http%3a%2f%2fwww.mirror.co.uk%2fnews%2fworld-news%2fegypt-hotel-shooting-video-shows-7143589&p=DevEx,5739.1
p468
sg13
g466
sg14
VThis video shows the aftermath of an ISIS attack a hotel used by foreign tourists in the Egyptian city of Hurghada. It was posted on an Egyptian news website in the wake of the attack.
p469
sg16
(dp470
g18
g466
sg19
g468
sg20
V2016-04-21T12:46:00
p471
sg22
g467
sg23
g469
sg24
Vhttps://api.cognitive.microsoft.com/api/v5/#WebPages.44
p472
ssg26
g472
sg27
Nsg28
g469
sbag1
(g2
g3
Ntp473
Rp474
(dp475
g7
VISIS claims responsibility for Egyptian church attacks
p476
sg9
Vhttps://www.yahoo.com/news/isis-claims-responsibility-egyptian...
p477
sg11
Vhttps://www.bing.com/cr?IG=7960AA5EA86242F7922DF9BA118B7917&CID=3E5905DA369E61132EFB0F85377760D7&rd=1&h=DwNTyhIUPkUKkxw2WgPXr-gYTEmnoSOj61wd-9o7qlY&v=1&r=https%3a%2f%2fwww.yahoo.com%2fnews%2fisis-claims-responsibility-egyptian-church-slideshow-wp-145918189.html&p=DevEx,5753.1
p478
sg13
g476
sg14
VBombs tore through two Egyptian churches in different cities as worshippers were marking Palm Sunday, killing at least 37 people and wounding around 100 in an assault claimed by the Islamic State group. In the first, attack, a bomb exploded at Saint George church in the Nile Delta city of Tanta, killing at least 26 people and wounding over 70, officials said. Later, an explosion hit Saint Mark\u2019s Cathedral in the coastal city of Alexandria, the historic seat of Christendom in ...
p479
sg16
(dp480
g18
g476
sg19
g478
sg20
V2017-04-09T15:14:00
p481
sg22
g477
sg23
g479
sg24
Vhttps://api.cognitive.microsoft.com/api/v5/#WebPages.45
p482
ssg26
g482
sg27
Nsg28
g479
sbag1
(g2
g3
Ntp483
Rp484
(dp485
g7
VIsis attacks drive Egyptian Christians from Sinai city
p486
sg9
Vhttps://www.ft.com/content/ab845e18-fcec-11e6-8d8e-a5e3738f9ae4
p487
sg11
Vhttps://www.bing.com/cr?IG=7960AA5EA86242F7922DF9BA118B7917&CID=3E5905DA369E61132EFB0F85377760D7&rd=1&h=NUgb-Va05U2TX-7T_ty4f7rlLnszFDhbcQCM5mYYlxI&v=1&r=https%3a%2f%2fwww.ft.com%2fcontent%2fab845e18-fcec-11e6-8d8e-a5e3738f9ae4&p=DevEx,5766.1
p488
sg13
g486
sg14
VIssaf Sameh, 10, tapped the side of his head and then his forehead to indicate where the bullets that killed his grandfather struck. Masked Isis militants shot the elderly man last week after storming his home in Arish, one of a string of attacks on Coptic Christians in the northern Sinai city
p489
sg16
(dp490
g18
g486
sg19
g488
sg20
V2017-03-30T08:34:00
p491
sg22
g487
sg23
g489
sg24
Vhttps://api.cognitive.microsoft.com/api/v5/#WebPages.46
p492
ssg26
g492
sg27
Nsg28
g489
sbag1
(g2
g3
Ntp493
Rp494
(dp495
g7
VEgyptian group with ties to ISIS claims responsibility for ... - Fox News
p496
sg9
Vwww.foxnews.com/world/2015/01/30/militant-attacks-in-egypt-sinai...
p497
sg11
Vhttp://www.bing.com/cr?IG=7960AA5EA86242F7922DF9BA118B7917&CID=3E5905DA369E61132EFB0F85377760D7&rd=1&h=-UXnB2c93QbbY54cIJXQPiFO6AJ9jMNSz5kJnkdmXmY&v=1&r=http%3a%2f%2fwww.foxnews.com%2fworld%2f2015%2f01%2f30%2fmilitant-attacks-in-egypt-sinai-peninsula-leave-at-least-20-dead-reports-say.html&p=DevEx,5780.1
p498
sg13
g496
sg14
VEgyptian group with ties to ISIS claims responsibility for deadly Sinai attacks. Published January 29, 2015. FoxNews.com ... Following the attack, Egyptian President Abdel-Fattah el-Sissi cut short a trip to Ethiopia, to return to Cairo, the state MENA news agency reported Friday. The wide-ranging attacks late Thursday required a previously unseen level of coordination.
p499
sg16
(dp500
g18
g496
sg19
g498
sg20
V2017-03-15T14:38:00
p501
sg22
g497
sg23
g499
sg24
Vhttps://api.cognitive.microsoft.com/api/v5/#WebPages.47
p502
ssg26
g502
sg27
Nsg28
g499
sbag1
(g2
g3
Ntp503
Rp504
(dp505
g7
VISIS claims responsibility for church attacks in Egypt - newkerala.com
p506
sg9
Vwww.newkerala.com/news/fullnews-238058.html
p507
sg11
Vhttp://www.bing.com/cr?IG=7960AA5EA86242F7922DF9BA118B7917&CID=3E5905DA369E61132EFB0F85377760D7&rd=1&h=uT38Qd2_6aWRWIY-AAHpdmcqPtuSVTHHwKwqF4oFjiM&v=1&r=http%3a%2f%2fwww.newkerala.com%2fnews%2ffullnews-238058.html&p=DevEx,5792.1
p508
sg13
g506
sg14
VCairo [Egypt], Apr. 9 : The Islamic State of Iraq and Syria (ISIS) has reportedly claimed responsibility for the two attacks on churches in Egypt that left at least 37 people dead and injured several others.
p509
sg16
(dp510
g18
g506
sg19
g508
sg20
V2017-04-09T15:39:00
p511
sg22
g507
sg23
g509
sg24
Vhttps://api.cognitive.microsoft.com/api/v5/#WebPages.48
p512
ssg26
g512
sg27
Nsg28
g509
sba.